(dp1
S'contents'
p2
(dp3
S'length'
p4
I32768
sS'unique'
p5
I00
sS'sortable'
p6
I4
sS'sql'
p7
S'TEXT'
p8
sS'notnull'
p9
I00
sS'type'
p10
S'text'
p11
ssS'id'
p12
(dp13
g4
I512
sg5
I00
sg6
I1
sg7
S'INTEGER PRIMARY KEY AUTOINCREMENT'
p14
sg9
I00
sg10
g12
ssS'language'
p15
(dp16
g4
I10
sg5
I00
sg6
I3
sg7
S'CHAR(10)'
p17
sg9
I00
sg10
S'string'
p18
ssS'hashtag'
p19
(dp20
g4
I128
sg5
I00
sg6
I2
sg7
S'CHAR(128)'
p21
sg9
I00
sg10
g18
ss.