(dp1
S'output'
p2
S"<type 'exceptions.TypeError'> not all arguments converted during string formatting"
p3
sS'layer'
p4
S'/home/piry/Documents/web2py/applications/pcidev/views/default/reviewsLayout.html'
p5
sS'code'
p6
S'response.write(\'<!DOCTYPE html>\\n<!--[if (gt IE 9)|!(IE)]><!--> <html class="no-js" lang="\', escape=False)\nresponse.write(T.accepted_language or \'en\')\nresponse.write(\'"> <!--<![endif]-->\\n  <head>\\n    <meta charset="utf-8">\\n    <!-- www.phpied.com/conditional-comments-block-downloads/ -->\\n    <!-- Always force latest IE rendering engine\\n         (even in intranet) & Chrome Frame\\n         Remove this if you use the .htaccess -->\\n    <meta http-equiv="X-UA-Compatible" content="IE=edge\', escape=False)\nresponse.write(not request.is_local and \',chrome=1\' or \'\')\nresponse.write(\'">\\n    <!--  Mobile Viewport Fix\\n          j.mp/mobileviewport & davidbcalhoun.com/2010/viewport-metatag\\n          device-width: Occupy full width of the screen in its current orientation\\n          initial-scale = 1.0 retains dimensions instead of zooming out if page height > device height\\n          user-scalable = yes allows the user to zoom in -->\\n    <meta name="viewport" content="width=device-width, initial-scale=1.0">\\n    <title>\', escape=False)\nresponse.write(response.title or request.application)\nresponse.write(\'</title>\\n    <!-- http://dev.w3.org/html5/markup/meta.name.html -->\\n    <meta name="application-name" content="\', escape=False)\nresponse.write(request.application)\nresponse.write(\'">\\n    <!-- Speaking of Google, don\\\'t forget to set your site up:\\n         http://google.com/webmasters -->\\n    <meta name="google-site-verification" content="">\\n    <!-- include stylesheets -->\\n    <link rel="stylesheet" href="\', escape=False)\nresponse.write(URL(\'static\',\'css/pcievolbiol0.css\'))\nresponse.write(\'"/>\\n    <link rel="stylesheet" href="\', escape=False)\nresponse.write(URL(\'static\',\'css/bootstrap.min.css\'))\nresponse.write(\'"/>\\n    <link rel="stylesheet" href="\', escape=False)\nresponse.write(URL(\'static\',\'css/web2py-bootstrap3.css\'))\nresponse.write(\'"/>\\n    <link rel="stylesheet" href="\', escape=False)\nresponse.write(URL(\'static\',\'css/pcievolbiol.css\'))\nresponse.write(\'"/>\\n    <link rel="shortcut icon" href="\', escape=False)\nresponse.write(URL(\'static\',\'images/favicon.ico\'))\nresponse.write(\'" type="image/x-icon">\\n    <link rel="apple-touch-icon" href="\', escape=False)\nresponse.write(URL(\'static\',\'images/favicon11.png\'))\nresponse.write(\'">\\n    <!-- All JavaScript at the bottom, except for Modernizr which enables\\n         HTML5 elements & feature detects -->\\n    <script src="\', escape=False)\nresponse.write(URL(\'static\',\'js/modernizr-2.8.3.min.js\'))\nresponse.write(\'"></script>\\n    <!--[if lt IE 9]>\\n        <script src="\', escape=False)\nresponse.write(URL(\'static\',\'js/respond-1.4.2.min.js\'))\nresponse.write(\'"></script>\\n        <![endif]-->\\n    <!-- Favicons -->\\n    \', escape=False)\nresponse.write(\'<script type="text/javascript"><!--\\n    // These variables are used by the web2py_ajax_init function in web2py_ajax.js (which is loaded below).\\n    var w2p_ajax_confirm_message = "\', escape=False)\nresponse.write(T(\'Are you sure you want to delete this object?\'))\nresponse.write(\'";\\n    var w2p_ajax_disable_with_message = "\', escape=False)\nresponse.write(T(\'Working...\'))\nresponse.write(\'";\\n    var w2p_ajax_date_format = "\', escape=False)\nresponse.write(T(\'%Y-%m-%d\'))\nresponse.write(\'";\\n    var w2p_ajax_datetime_format = "\', escape=False)\nresponse.write(T(\'%Y-%m-%d %H:%M:%S\'))\nresponse.write(\'";\\n    var ajax_error_500 = \\\'\', escape=False)\nresponse.write(T.M(\'An error occured, please [[reload %s]] the page\') % URL(args=request.args, vars=request.get_vars))\nresponse.write("\'\\n    //--></script>\\n", escape=False)\nresponse.files.insert(0,URL(\'static\',\'js/jquery.js\'))\nresponse.files.insert(1,URL(\'static\',\'css/calendar.css\'))\nresponse.files.insert(2,URL(\'static\',\'js/calendar.js\'))\nresponse.files.insert(3,URL(\'static\',\'js/web2py.js\'))\nresponse.include_meta()\nresponse.include_files()\nresponse.write(\'\\n\', escape=False)\nresponse.write(\' <!-- this includes jquery.js, calendar.js/.css and web2py.js -->\\n    <script src="\', escape=False)\nresponse.write(URL(\'static\',\'js/jquery.cookie.js\'))\nresponse.write(\'"></script>\\n    \', escape=False)\nresponse.write(\'\\n    \', escape=False)\n# using sidebars need to know what sidebar you want to use\nmc0 = \'col-md-12\'\nmc1 = \'col-md-9\'\nmc2 = \'col-md-6\'\nleft_sidebar_enabled = globals().get(\'left_sidebar_enabled\', False)\nright_sidebar_enabled = globals().get(\'right_sidebar_enabled\', False)\nmiddle_column = {0: mc0, 1: mc1, 2: mc2}[\n(left_sidebar_enabled and 1 or 0)+(right_sidebar_enabled and 1 or 0)]\nresponse.write(\'\\n    <script>window.onload = function () {if ($.cookie(\\\'PCiHideHelp\\\') == \\\'On\\\') $(\\\'DIV.pci-helptext\\\').hide(); else $(\\\'DIV.pci-helptext\\\').show();}</script>\\n  </head>\\n  <body>\\n    <!--[if lt IE 8]><p class="browserupgrade">You are using an <strong>outdated</strong> browser. Please <a href="http://browsehappy.com/">upgrade your browser</a> to improve your experience.</p><![endif]-->\\n    <div class="w2p_flash alert alert-dismissable">\', escape=False)\nresponse.write(response.flash or \'\')\nresponse.write(\'</div>\\n    <!-- Navbar ======================================= -->\\n    <nav class="navbar navbar-default navbar-fixed-top" role="navigation">\\n      <div class="container-fluid">\\n        <div class="navbar-header">\\n\\t\\t\\t\\t<div id="languageChooser">\\n                <span>\', escape=False)\nif hasattr(T,\'get_possible_languages_info\'):\n    response.write(\' \', escape=False)\n    response.write(T(\'Interface language:\'))\n    response.write(\'</span>\\n                <select name="adminlanguage" onchange="var date = new Date(); cookieDate=date.setTime(date.getTime()+(100*24*60*60*1000)); document.cookie=\\\'adminLanguage=\\\'+this.options[this.selectedIndex].id+\\\'; expires=\\\'+cookieDate+\\\'; path=/\\\';window.location.reload()">\\n                    \', escape=False)\n    for langinfo in sorted([(code,info[1]) for code,info in T.get_possible_languages_info().iteritems() if code != \'default\']):\n        response.write(\'\\n                    <option \', escape=False)\n        response.write(T.accepted_language==langinfo[0] and \'selected\' or \'\')\n        response.write(\' \', escape=False)\n        response.write(\'id=\'+langinfo[0])\n        response.write(\' >\', escape=False)\n        response.write(langinfo[1])\n        response.write(\'</option>\\n                    \', escape=False)\n        pass\n    response.write(\'\\n                </select>\\n                \', escape=False)\nelse:\n    response.write(\'\\n                </span>\', escape=False)\n    pass\nresponse.write(\'\\n                </div>\\n          <button type="button" class="navbar-toggle" data-toggle="collapse" data-target=".navbar-collapse">\\n            <span class="sr-only">Toggle navigation</span>\\n            <span class="icon-bar"></span>\\n            <span class="icon-bar"></span>\\n            <span class="icon-bar"></span>\\n          </button>\\n          \', escape=False)\nresponse.write(response.logo or \'\')\nresponse.write(\'\\n        </div>\\n        <div class="collapse navbar-collapse navbar-ex1-collapse">\\n          <ul class="nav navbar-nav navbar-right">\\n            \', escape=False)\nresponse.write(\'auth\' in globals() and auth.navbar(\'Welcome\',mode=\'dropdown\') or \'\')\nresponse.write(\'\\n          </ul>\\n          \', escape=False)\nif response.menu:\n    response.write(\'\\n          \', escape=False)\n    response.write(MENU(response.menu, _class=\'nav navbar-nav\',li_class=\'dropdown\',ul_class=\'dropdown-menu\'))\n    response.write(\'\\n          \', escape=False)\n    pass\nresponse.write(\'\\n        </div>\\n      </div>\\n    </nav>\\n    <!-- Masthead ===================================== -->    \\n    \', escape=False)\nresponse.write(\'\\n    \', escape=False)\nresponse.write(\'\\n    <!-- Main ========================================= -->\\n    <!-- Begin page content -->\\n    <div class="container-fluid main-container">\\n      \', escape=False)\nif left_sidebar_enabled:\n    response.write(\'\\n        <div class="col-md-3 left-sidebar">\\n            \', escape=False)\n    response.write(\'\\n            <h3>Left Sidebar</h3>\\n            <p></p>\\n            \', escape=False)\n    response.write(\'\\n        </div>\\n      \', escape=False)\n    pass\nresponse.write(\'\\n\\n      <div class="\', escape=False)\nresponse.write(middle_column)\nresponse.write(\'">\\n        \', escape=False)\nresponse.write(\'\\n        \', escape=False)\nresponse.write(\'\\n\\n\', escape=False)\nif \'myBackButton\' in locals() and (grid.create_form or grid.update_form or grid.view_form):\n    response.write(\'\\n\\t\', escape=False)\n    response.write(myBackButton)\n    response.write(\'\\n\\t\', escape=False)\n    pass\nresponse.write(\'\\n      \\n\', escape=False)\nif \'myTitle\' in locals():\n    response.write(\'\\n\\t\', escape=False)\n    response.write(H1(myTitle))\n    response.write(\'\\n\\t\', escape=False)\n    pass\nresponse.write(\'\\n\\n\', escape=False)\nif \'myHelp\' in locals():\n    response.write(\'\\n  \', escape=False)\n    response.write(myHelp)\n    response.write(\'\\n  \', escape=False)\n    pass\nresponse.write(\'\\n\\n\', escape=False)\nif \'myContents\' in locals():\n    response.write(\'\\n\\t\', escape=False)\n    response.write(myContents)\n    response.write(\'\\n\\t\', escape=False)\n    pass\nresponse.write(\'\\n\\n<hr>\\n<div>\\n\', escape=False)\nif \'form\' in locals():\n    response.write(\'\\n\\t\', escape=False)\n    response.write(form)\n    response.write(\'\\n\', escape=False)\nelif grid.create_form:\n    response.write(\'\\n   \', escape=False)\n    response.write(grid.create_form)\n    response.write(\'\\n\', escape=False)\nelif grid.update_form:\n    response.write(\'\\n   \', escape=False)\n    response.write(grid.update_form)\n    response.write(\'\\n\', escape=False)\nelif grid.view_form:\n    response.write(\'\\n   \', escape=False)\n    response.write(grid.view_form)\n    response.write(\'\\n\', escape=False)\nelse:\n    response.write(\'\\n   \', escape=False)\n    response.write(grid)\n    response.write(\'\\n\', escape=False)\n    pass\nresponse.write(\'\\n</div>\\n\\n\', escape=False)\nif \'myAcceptBtn\' in locals() and myAcceptBtn and (grid.create_form or grid.update_form or grid.view_form):\n    response.write(\'\\n\\t\', escape=False)\n    response.write(myAcceptBtn)\n    response.write(\'\\n\\t\', escape=False)\n    pass\nresponse.write(\'\\n\', escape=False)\nresponse.write(\'\\n        \', escape=False)\nresponse.write(\'\\n      </div>\\n\\n      \', escape=False)\nif right_sidebar_enabled:\n    response.write(\'\\n        <div class="col-md-3">\\n            \', escape=False)\n    response.write(\'\\n            <h3>Right Sidebar</h3>\\n            <p></p>\\n            \', escape=False)\n    response.write(\'\\n        </div>\\n      \', escape=False)\n    pass\nresponse.write(\'\\n\\n    </div>\\n\\n    <!-- The footer =============================== -->\\n    <!-- The javascript =============================== -->\\n    <script src="\', escape=False)\nresponse.write(URL(\'static\',\'js/bootstrap.min.js\'))\nresponse.write(\'"></script>\\n    <script src="\', escape=False)\nresponse.write(URL(\'static\',\'js/web2py-bootstrap3.js\'))\nresponse.write(\'"></script>\\n    \', escape=False)\nresponse.write(\'\\n    <!-- Share ======================================== -->\\n    \', escape=False)\nif \'shareable\' in globals():\n    response.write(\'\\n    <script src="\', escape=False)\n    response.write(URL(\'static\',\'js/share.js\',vars=dict(static=URL(\'static\',\'images\'))))\n    response.write(\'"></script>\\n    \', escape=False)\n    pass\nresponse.write(\'\\n  </body>\\n</html>\\n\', escape=False)'
p7
sS'snapshot'
p8
(dp9
S'exception'
p10
(dp11
S'__hash__'
p12
S"<method-wrapper '__hash__' of exceptions.TypeError object>"
p13
sS'__setattr__'
p14
S"<method-wrapper '__setattr__' of exceptions.TypeError object>"
p15
sS'__reduce_ex__'
p16
S'<built-in method __reduce_ex__ of exceptions.TypeError object>'
p17
sS'__getslice__'
p18
S"<method-wrapper '__getslice__' of exceptions.TypeError object>"
p19
sS'__getitem__'
p20
S"<method-wrapper '__getitem__' of exceptions.TypeError object>"
p21
sS'__setstate__'
p22
S'<built-in method __setstate__ of exceptions.TypeError object>'
p23
sS'args'
p24
S"('not all arguments converted during string formatting',)"
p25
sS'__reduce__'
p26
S'<built-in method __reduce__ of exceptions.TypeError object>'
p27
sS'__str__'
p28
S"<method-wrapper '__str__' of exceptions.TypeError object>"
p29
sS'__format__'
p30
S'<built-in method __format__ of exceptions.TypeError object>'
p31
sS'__getattribute__'
p32
S"<method-wrapper '__getattribute__' of exceptions.TypeError object>"
p33
sS'__class__'
p34
S"<type 'exceptions.TypeError'>"
p35
sS'__unicode__'
p36
S'<built-in method __unicode__ of exceptions.TypeError object>'
p37
sS'__delattr__'
p38
S"<method-wrapper '__delattr__' of exceptions.TypeError object>"
p39
sS'__subclasshook__'
p40
S'<built-in method __subclasshook__ of type object>'
p41
sS'__repr__'
p42
S"<method-wrapper '__repr__' of exceptions.TypeError object>"
p43
sS'__dict__'
p44
S'{}'
p45
sS'__sizeof__'
p46
S'<built-in method __sizeof__ of exceptions.TypeError object>'
p47
sS'__doc__'
p48
S"'Inappropriate argument type.'"
p49
sS'__init__'
p50
S"<method-wrapper '__init__' of exceptions.TypeError object>"
p51
sS'__new__'
p52
S'<built-in method __new__ of type object>'
p53
ssS'evalue'
p54
S'not all arguments converted during string formatting'
p55
sS'request'
p56
cgluon.html
XML_unpickle
p57
(S's\x14c\x00\x00<div><table><tr><td style="font-weight:bold;vertical-align:top;">ajax</td><td style="vertical-align:top;">:</td><td><div>False</div></td></tr><tr><td style="font-weight:bold;vertical-align:top;">application</td><td style="vertical-align:top;">:</td><td><div>pcidev</div></td></tr><tr><td style="font-weight:bold;vertical-align:top;">args</td><td style="vertical-align:top;">:</td><td><div><table></table></div></td></tr><tr><td style="font-weight:bold;vertical-align:top;">cid</td><td style="vertical-align:top;">:</td><td><div>None</div></td></tr><tr><td style="font-weight:bold;vertical-align:top;">client</td><td style="vertical-align:top;">:</td><td><div>127.0.0.1</div></td></tr><tr><td style="font-weight:bold;vertical-align:top;">controller</td><td style="vertical-align:top;">:</td><td><div>user</div></td></tr><tr><td style="font-weight:bold;vertical-align:top;">cookies</td><td style="vertical-align:top;">:</td><td><div><table><tr><td style="font-weight:bold;vertical-align:top;">PCiHideHelp</td><td style="vertical-align:top;">:</td><td><div>Off<table><tr><td style="font-weight:bold;vertical-align:top;">comment</td><td style="vertical-align:top;">:</td><td><div></div></td></tr><tr><td style="font-weight:bold;vertical-align:top;">domain</td><td style="vertical-align:top;">:</td><td><div></div></td></tr><tr><td style="font-weight:bold;vertical-align:top;">expires</td><td style="vertical-align:top;">:</td><td><div></div></td></tr><tr><td style="font-weight:bold;vertical-align:top;">httponly</td><td style="vertical-align:top;">:</td><td><div></div></td></tr><tr><td style="font-weight:bold;vertical-align:top;">max-age</td><td style="vertical-align:top;">:</td><td><div></div></td></tr><tr><td style="font-weight:bold;vertical-align:top;">path</td><td style="vertical-align:top;">:</td><td><div></div></td></tr><tr><td style="font-weight:bold;vertical-align:top;">secure</td><td style="vertical-align:top;">:</td><td><div></div></td></tr><tr><td style="font-weight:bold;vertical-align:top;">version</td><td style="vertical-align:top;">:</td><td><div></div></td></tr></table></div></td></tr><tr><td style="font-weight:bold;vertical-align:top;">datamatrixBoxPattern</td><td style="vertical-align:top;">:</td><td><div>^Box<table><tr><td style="font-weight:bold;vertical-align:top;">comment</td><td style="vertical-align:top;">:</td><td><div></div></td></tr><tr><td style="font-weight:bold;vertical-align:top;">domain</td><td style="vertical-align:top;">:</td><td><div></div></td></tr><tr><td style="font-weight:bold;vertical-align:top;">expires</td><td style="vertical-align:top;">:</td><td><div></div></td></tr><tr><td style="font-weight:bold;vertical-align:top;">httponly</td><td style="vertical-align:top;">:</td><td><div></div></td></tr><tr><td style="font-weight:bold;vertical-align:top;">max-age</td><td style="vertical-align:top;">:</td><td><div></div></td></tr><tr><td style="font-weight:bold;vertical-align:top;">path</td><td style="vertical-align:top;">:</td><td><div></div></td></tr><tr><td style="font-weight:bold;vertical-align:top;">secure</td><td style="vertical-align:top;">:</td><td><div></div></td></tr><tr><td style="font-weight:bold;vertical-align:top;">version</td><td style="vertical-align:top;">:</td><td><div></div></td></tr></table></div></td></tr><tr><td style="font-weight:bold;vertical-align:top;">session_id_admin</td><td style="vertical-align:top;">:</td><td><div>127.0.0.1-7fc6e3aa-142d-4445-bdd3-93fbd9cc27e8<table><tr><td style="font-weight:bold;vertical-align:top;">comment</td><td style="vertical-align:top;">:</td><td><div></div></td></tr><tr><td style="font-weight:bold;vertical-align:top;">domain</td><td style="vertical-align:top;">:</td><td><div></div></td></tr><tr><td style="font-weight:bold;vertical-align:top;">expires</td><td style="vertical-align:top;">:</td><td><div></div></td></tr><tr><td style="font-weight:bold;vertical-align:top;">httponly</td><td style="vertical-align:top;">:</td><td><div></div></td></tr><tr><td style="font-weight:bold;vertical-align:top;">max-age</td><td style="vertical-align:top;">:</td><td><div></div></td></tr><tr><td style="font-weight:bold;vertical-align:top;">path</td><td style="vertical-align:top;">:</td><td><div></div></td></tr><tr><td style="font-weight:bold;vertical-align:top;">secure</td><td style="vertical-align:top;">:</td><td><div></div></td></tr><tr><td style="font-weight:bold;vertical-align:top;">version</td><td style="vertical-align:top;">:</td><td><div></div></td></tr></table></div></td></tr><tr><td style="font-weight:bold;vertical-align:top;">session_id_pcidev</td><td style="vertical-align:top;">:</td><td><div>127.0.0.1-75482a6d-8697-4716-ab90-c4e2cac7467e<table><tr><td style="font-weight:bold;vertical-align:top;">comment</td><td style="vertical-align:top;">:</td><td><div></div></td></tr><tr><td style="font-weight:bold;vertical-align:top;">domain</td><td style="vertical-align:top;">:</td><td><div></div></td></tr><tr><td style="font-weight:bold;vertical-align:top;">expires</td><td style="vertical-align:top;">:</td><td><div></div></td></tr><tr><td style="font-weight:bold;vertical-align:top;">httponly</td><td style="vertical-align:top;">:</td><td><div></div></td></tr><tr><td style="font-weight:bold;vertical-align:top;">max-age</td><td style="vertical-align:top;">:</td><td><div></div></td></tr><tr><td style="font-weight:bold;vertical-align:top;">path</td><td style="vertical-align:top;">:</td><td><div></div></td></tr><tr><td style="font-weight:bold;vertical-align:top;">secure</td><td style="vertical-align:top;">:</td><td><div></div></td></tr><tr><td style="font-weight:bold;vertical-align:top;">version</td><td style="vertical-align:top;">:</td><td><div></div></td></tr></table></div></td></tr></table></div></td></tr><tr><td style="font-weight:bold;vertical-align:top;">env</td><td style="vertical-align:top;">:</td><td><div><table><tr><td style="font-weight:bold;vertical-align:top;">HTTP_ACCEPT</td><td style="vertical-align:top;">:</td><td><div>text/html,application/xhtml+xml,application/xml;q=0.9,*/*;q=0.8</div></td></tr><tr><td style="font-weight:bold;vertical-align:top;">HTTP_ACCEPT_ENCODING</td><td style="vertical-align:top;">:</td><td><div>gzip, deflate</div></td></tr><tr><td style="font-weight:bold;vertical-align:top;">HTTP_ACCEPT_LANGUAGE</td><td style="vertical-align:top;">:</td><td><div>en-US,en;q=0.5</div></td></tr><tr><td style="font-weight:bold;vertical-align:top;">HTTP_CACHE_CONTROL</td><td style="vertical-align:top;">:</td><td><div>max-age=0</div></td></tr><tr><td style="font-weight:bold;vertical-align:top;">HTTP_CONNECTION</td><td style="vertical-align:top;">:</td><td><div>keep-alive</div></td></tr><tr><td style="font-weight:bold;vertical-align:top;">HTTP_COOKIE</td><td style="vertical-align:top;">:</td><td><div>datamatrixBoxPattern=^Box; session_id_pcidev=127.0.0.1-75482a6d-8697-4716-ab90-c4e2cac7467e; PCiHideHelp=Off; session_id_admin=127.0.0.1-7fc6e3aa-142d-4445-bdd3-93fbd9cc27e8</div></td></tr><tr><td style="font-weight:bold;vertical-align:top;">HTTP_DNT</td><td style="vertical-align:top;">:</td><td><div>1</div></td></tr><tr><td style="font-weight:bold;vertical-align:top;">HTTP_HOST</td><td style="vertical-align:top;">:</td><td><div>127.0.0.1:8000</div></td></tr><tr><td style="font-weight:bold;vertical-align:top;">HTTP_REFERER</td><td style="vertical-align:top;">:</td><td><div>http://127.0.0.1:8000/pcidev/manage/manage_recommendations?article=107386&amp;_signature=3eb3e57e94210b9cdcee9f8f358ac8c60c685d90</div></td></tr><tr><td style="font-weight:bold;vertical-align:top;">HTTP_UPGRADE_INSECURE_REQUESTS</td><td style="vertical-align:top;">:</td><td><div>1</div></td></tr><tr><td style="font-weight:bold;vertical-align:top;">HTTP_USER_AGENT</td><td style="vertical-align:top;">:</td><td><div>Mozilla/5.0 (X11; Ubuntu; Linux x86_64; rv:49.0) Gecko/20100101 Firefox/49.0</div></td></tr><tr><td style="font-weight:bold;vertical-align:top;">PATH_INFO</td><td style="vertical-align:top;">:</td><td><div>/pcidev/user/my_reviews</div></td></tr><tr><td style="font-weight:bold;vertical-align:top;">QUERY_STRING</td><td style="vertical-align:top;">:</td><td><div>_signature=7d47c181fdbe7f5d385fa53a37fd03657a65e4c4</div></td></tr><tr><td style="font-weight:bold;vertical-align:top;">REMOTE_ADDR</td><td style="vertical-align:top;">:</td><td><div>127.0.0.1</div></td></tr><tr><td style="font-weight:bold;vertical-align:top;">REMOTE_PORT</td><td style="vertical-align:top;">:</td><td><div>60274</div></td></tr><tr><td style="font-weight:bold;vertical-align:top;">REQUEST_METHOD</td><td style="vertical-align:top;">:</td><td><div>GET</div></td></tr><tr><td style="font-weight:bold;vertical-align:top;">SCRIPT_NAME</td><td style="vertical-align:top;">:</td><td><div></div></td></tr><tr><td style="font-weight:bold;vertical-align:top;">SERVER_NAME</td><td style="vertical-align:top;">:</td><td><div>mbipi</div></td></tr><tr><td style="font-weight:bold;vertical-align:top;">SERVER_PORT</td><td style="vertical-align:top;">:</td><td><div>8000</div></td></tr><tr><td style="font-weight:bold;vertical-align:top;">SERVER_PROTOCOL</td><td style="vertical-align:top;">:</td><td><div>HTTP/1.1</div></td></tr><tr><td style="font-weight:bold;vertical-align:top;">SERVER_SOFTWARE</td><td style="vertical-align:top;">:</td><td><div>Rocket 1.2.6</div></td></tr><tr><td style="font-weight:bold;vertical-align:top;">app_folders</td><td style="vertical-align:top;">:</td><td><div>set([&#x27;/home/piry/Documents/web2py/applications/pcidev/&#x27;, &#x27;/home/piry/Documents/web2py/applications/admin/&#x27;, &#x27;/home/piry/Documents/web2py/applications/welcome/&#x27;])</div></td></tr><tr><td style="font-weight:bold;vertical-align:top;">applications_parent</td><td style="vertical-align:top;">:</td><td><div>/home/piry/Documents/web2py</div></td></tr><tr><td style="font-weight:bold;vertical-align:top;">cmd_args</td><td style="vertical-align:top;">:</td><td><div><table></table></div></td></tr><tr><td style="font-weight:bold;vertical-align:top;">cmd_options</td><td style="vertical-align:top;">:</td><td><div>&lt;Values at 0x7f1ffb4b7bd8: {&#x27;verbose&#x27;: False, &#x27;ip&#x27;: &#x27;127.0.0.1&#x27;, &#x27;debuglevel&#x27;: 30, &#x27;with_scheduler&#x27;: False, &#x27;shutdown_timeout&#x27;: 5, &#x27;taskbar&#x27;: False, &#x27;with_coverage&#x27;: False, &#x27;pid_filename&#x27;: &#x27;httpserver.pid&#x27;, &#x27;maxthreads&#x27;: None, &#x27;softcron&#x27;: False, &#x27;server_name&#x27;: &#x27;mbipi&#x27;, &#x27;bpython&#x27;: False, &#x27;nogui&#x27;: False, &#x27;port&#x27;: 8000, &#x27;print_errors&#x27;: False, &#x27;extcron&#x27;: False, &#x27;runcron&#x27;: False, &#x27;run_system_tests&#x27;: False, &#x27;test&#x27;: None, &#x27;folder&#x27;: &#x27;/home/piry/Documents/web2py&#x27;, &#x27;config&#x27;: &#x27;&#x27;, &#x27;minthreads&#x27;: None, &#x27;shell&#x27;: None, &#x27;run&#x27;: &#x27;&#x27;, &#x27;log_filename&#x27;: &#x27;httpserver.log&#x27;, &#x27;profiler_dir&#x27;: None, &#x27;args&#x27;: [&#x27;&#x27;], &#x27;socket_timeout&#x27;: 5, &#x27;ssl_ca_certificate&#x27;: None, &#x27;scheduler&#x27;: None, &#x27;interfaces&#x27;: None, &#x27;ssl_private_key&#x27;: &#x27;&#x27;, &#x27;gae&#x27;: None, &#x27;password&#x27;: &#x27;******&#x27;, &#x27;request_queue_size&#x27;: 5, &#x27;ssl_certificate&#x27;: &#x27;&#x27;, &#x27;cronjob&#x27;: False, &#x27;numthreads&#x27;: None, &#x27;quiet&#x27;: False, &#x27;import_models&#x27;: False, &#x27;timeout&#x27;: 10, &#x27;plain&#x27;: False, &#x27;nobanner&#x27;: False}&gt;</div></td></tr><tr><td style="font-weight:bold;vertical-align:top;">db_sessions</td><td style="vertical-align:top;">:</td><td><div>set([])</div></td></tr><tr><td style="font-weight:bold;vertical-align:top;">debugging</td><td style="vertical-align:top;">:</td><td><div>False</div></td></tr><tr><td style="font-weight:bold;vertical-align:top;">gluon_parent</td><td style="vertical-align:top;">:</td><td><div>/home/piry/Documents/web2py</div></td></tr><tr><td style="font-weight:bold;vertical-align:top;">http_accept</td><td style="vertical-align:top;">:</td><td><div>text/html,application/xhtml+xml,application/xml;q=0.9,*/*;q=0.8</div></td></tr><tr><td style="font-weight:bold;vertical-align:top;">http_accept_encoding</td><td style="vertical-align:top;">:</td><td><div>gzip, deflate</div></td></tr><tr><td style="font-weight:bold;vertical-align:top;">http_accept_language</td><td style="vertical-align:top;">:</td><td><div>en-US,en;q=0.5</div></td></tr><tr><td style="font-weight:bold;vertical-align:top;">http_cache_control</td><td style="vertical-align:top;">:</td><td><div>max-age=0</div></td></tr><tr><td style="font-weight:bold;vertical-align:top;">http_connection</td><td style="vertical-align:top;">:</td><td><div>keep-alive</div></td></tr><tr><td style="font-weight:bold;vertical-align:top;">http_cookie</td><td style="vertical-align:top;">:</td><td><div>datamatrixBoxPattern=^Box; session_id_pcidev=127.0.0.1-75482a6d-8697-4716-ab90-c4e2cac7467e; PCiHideHelp=Off; session_id_admin=127.0.0.1-7fc6e3aa-142d-4445-bdd3-93fbd9cc27e8</div></td></tr><tr><td style="font-weight:bold;vertical-align:top;">http_dnt</td><td style="vertical-align:top;">:</td><td><div>1</div></td></tr><tr><td style="font-weight:bold;vertical-align:top;">http_host</td><td style="vertical-align:top;">:</td><td><div>127.0.0.1:8000</div></td></tr><tr><td style="font-weight:bold;vertical-align:top;">http_referer</td><td style="vertical-align:top;">:</td><td><div>http://127.0.0.1:8000/pcidev/manage/manage_recommendations?article=107386&amp;_signature=3eb3e57e94210b9cdcee9f8f358ac8c60c685d90</div></td></tr><tr><td style="font-weight:bold;vertical-align:top;">http_upgrade_insecure_requests</td><td style="vertical-align:top;">:</td><td><div>1</div></td></tr><tr><td style="font-weight:bold;vertical-align:top;">http_user_agent</td><td style="vertical-align:top;">:</td><td><div>Mozilla/5.0 (X11; Ubuntu; Linux x86_64; rv:49.0) Gecko/20100101 Firefox/49.0</div></td></tr><tr><td style="font-weight:bold;vertical-align:top;">is_jython</td><td style="vertical-align:top;">:</td><td><div>False</div></td></tr><tr><td style="font-weight:bold;vertical-align:top;">is_pypy</td><td style="vertical-align:top;">:</td><td><div>False</div></td></tr><tr><td style="font-weight:bold;vertical-align:top;">is_source</td><td style="vertical-align:top;">:</td><td><div>True</div></td></tr><tr><td style="font-weight:bold;vertical-align:top;">local_hosts</td><td style="vertical-align:top;">:</td><td><div><table><tr><td><div>147.99.65.46</div></td></tr><tr><td><div>mbipi</div></td></tr><tr><td><div>::ffff:127.0.0.1</div></td></tr><tr><td><div>::1</div></td></tr><tr><td><div>localhost6.localdomain6</div></td></tr><tr><td><div>127.0.0.1</div></td></tr></table></div></td></tr><tr><td style="font-weight:bold;vertical-align:top;">path_info</td><td style="vertical-align:top;">:</td><td><div>/pcidev/user/my_reviews</div></td></tr><tr><td style="font-weight:bold;vertical-align:top;">query_string</td><td style="vertical-align:top;">:</td><td><div>_signature=7d47c181fdbe7f5d385fa53a37fd03657a65e4c4</div></td></tr><tr><td style="font-weight:bold;vertical-align:top;">remote_addr</td><td style="vertical-align:top;">:</td><td><div>127.0.0.1</div></td></tr><tr><td style="font-weight:bold;vertical-align:top;">remote_port</td><td style="vertical-align:top;">:</td><td><div>60274</div></td></tr><tr><td style="font-weight:bold;vertical-align:top;">request_method</td><td style="vertical-align:top;">:</td><td><div>GET</div></td></tr><tr><td style="font-weight:bold;vertical-align:top;">request_uri</td><td style="vertical-align:top;">:</td><td><div>/pcidev/user/my_reviews?_signature=7d47c181fdbe7f5d385fa53a37fd03657a65e4c4</div></td></tr><tr><td style="font-weight:bold;vertical-align:top;">script_name</td><td style="vertical-align:top;">:</td><td><div></div></td></tr><tr><td style="font-weight:bold;vertical-align:top;">server_name</td><td style="vertical-align:top;">:</td><td><div>mbipi</div></td></tr><tr><td style="font-weight:bold;vertical-align:top;">server_port</td><td style="vertical-align:top;">:</td><td><div>8000</div></td></tr><tr><td style="font-weight:bold;vertical-align:top;">server_protocol</td><td style="vertical-align:top;">:</td><td><div>HTTP/1.1</div></td></tr><tr><td style="font-weight:bold;vertical-align:top;">server_software</td><td style="vertical-align:top;">:</td><td><div>Rocket 1.2.6</div></td></tr><tr><td style="font-weight:bold;vertical-align:top;">web2py_path</td><td style="vertical-align:top;">:</td><td><div>/home/piry/Documents/web2py</div></td></tr><tr><td style="font-weight:bold;vertical-align:top;">web2py_version</td><td style="vertical-align:top;">:</td><td><div>2.14.6-stable+timestamp.2016.05.10.00.21.47</div></td></tr><tr><td style="font-weight:bold;vertical-align:top;">wsgi.errors</td><td style="vertical-align:top;">:</td><td><div>&lt;open file &#x27;&lt;stderr&gt;&#x27;, mode &#x27;w&#x27; at 0x7f20076321e0&gt;</div></td></tr><tr><td style="font-weight:bold;vertical-align:top;">wsgi.file_wrapper</td><td style="vertical-align:top;">:</td><td><div>&lt;class wsgiref.util.FileWrapper at 0x7f1ffb4eb328&gt;</div></td></tr><tr><td style="font-weight:bold;vertical-align:top;">wsgi.input</td><td style="vertical-align:top;">:</td><td><div>&lt;socket._fileobject object at 0x7f1fc232a050&gt;</div></td></tr><tr><td style="font-weight:bold;vertical-align:top;">wsgi.multiprocess</td><td style="vertical-align:top;">:</td><td><div>False</div></td></tr><tr><td style="font-weight:bold;vertical-align:top;">wsgi.multithread</td><td style="vertical-align:top;">:</td><td><div>True</div></td></tr><tr><td style="font-weight:bold;vertical-align:top;">wsgi.run_once</td><td style="vertical-align:top;">:</td><td><div>False</div></td></tr><tr><td style="font-weight:bold;vertical-align:top;">wsgi.url_scheme</td><td style="vertical-align:top;">:</td><td><div>http</div></td></tr><tr><td style="font-weight:bold;vertical-align:top;">wsgi.version</td><td style="vertical-align:top;">:</td><td><div><table><tr><td><div>1</div></td></tr><tr><td><div>0</div></td></tr></table></div></td></tr><tr><td style="font-weight:bold;vertical-align:top;">wsgi_errors</td><td style="vertical-align:top;">:</td><td><div>&lt;open file &#x27;&lt;stderr&gt;&#x27;, mode &#x27;w&#x27; at 0x7f20076321e0&gt;</div></td></tr><tr><td style="font-weight:bold;vertical-align:top;">wsgi_file_wrapper</td><td style="vertical-align:top;">:</td><td><div>&lt;class wsgiref.util.FileWrapper at 0x7f1ffb4eb328&gt;</div></td></tr><tr><td style="font-weight:bold;vertical-align:top;">wsgi_input</td><td style="vertical-align:top;">:</td><td><div>&lt;socket._fileobject object at 0x7f1fc232a050&gt;</div></td></tr><tr><td style="font-weight:bold;vertical-align:top;">wsgi_multiprocess</td><td style="vertical-align:top;">:</td><td><div>False</div></td></tr><tr><td style="font-weight:bold;vertical-align:top;">wsgi_multithread</td><td style="vertical-align:top;">:</td><td><div>True</div></td></tr><tr><td style="font-weight:bold;vertical-align:top;">wsgi_run_once</td><td style="vertical-align:top;">:</td><td><div>False</div></td></tr><tr><td style="font-weight:bold;vertical-align:top;">wsgi_url_scheme</td><td style="vertical-align:top;">:</td><td><div>http</div></td></tr><tr><td style="font-weight:bold;vertical-align:top;">wsgi_version</td><td style="vertical-align:top;">:</td><td><div><table><tr><td><div>1</div></td></tr><tr><td><div>0</div></td></tr></table></div></td></tr></table></div></td></tr><tr><td style="font-weight:bold;vertical-align:top;">extension</td><td style="vertical-align:top;">:</td><td><div>html</div></td></tr><tr><td style="font-weight:bold;vertical-align:top;">folder</td><td style="vertical-align:top;">:</td><td><div>/home/piry/Documents/web2py/applications/pcidev/</div></td></tr><tr><td style="font-weight:bold;vertical-align:top;">function</td><td style="vertical-align:top;">:</td><td><div>my_reviews</div></td></tr><tr><td style="font-weight:bold;vertical-align:top;">global_settings</td><td style="vertical-align:top;">:</td><td><div><table><tr><td style="font-weight:bold;vertical-align:top;">app_folders</td><td style="vertical-align:top;">:</td><td><div>set([&#x27;/home/piry/Documents/web2py/applications/pcidev/&#x27;, &#x27;/home/piry/Documents/web2py/applications/admin/&#x27;, &#x27;/home/piry/Documents/web2py/applications/welcome/&#x27;])</div></td></tr><tr><td style="font-weight:bold;vertical-align:top;">applications_parent</td><td style="vertical-align:top;">:</td><td><div>/home/piry/Documents/web2py</div></td></tr><tr><td style="font-weight:bold;vertical-align:top;">cmd_args</td><td style="vertical-align:top;">:</td><td><div><table></table></div></td></tr><tr><td style="font-weight:bold;vertical-align:top;">cmd_options</td><td style="vertical-align:top;">:</td><td><div>&lt;Values at 0x7f1ffb4b7bd8: {&#x27;verbose&#x27;: False, &#x27;ip&#x27;: &#x27;127.0.0.1&#x27;, &#x27;debuglevel&#x27;: 30, &#x27;with_scheduler&#x27;: False, &#x27;shutdown_timeout&#x27;: 5, &#x27;taskbar&#x27;: False, &#x27;with_coverage&#x27;: False, &#x27;pid_filename&#x27;: &#x27;httpserver.pid&#x27;, &#x27;maxthreads&#x27;: None, &#x27;softcron&#x27;: False, &#x27;server_name&#x27;: &#x27;mbipi&#x27;, &#x27;bpython&#x27;: False, &#x27;nogui&#x27;: False, &#x27;port&#x27;: 8000, &#x27;print_errors&#x27;: False, &#x27;extcron&#x27;: False, &#x27;runcron&#x27;: False, &#x27;run_system_tests&#x27;: False, &#x27;test&#x27;: None, &#x27;folder&#x27;: &#x27;/home/piry/Documents/web2py&#x27;, &#x27;config&#x27;: &#x27;&#x27;, &#x27;minthreads&#x27;: None, &#x27;shell&#x27;: None, &#x27;run&#x27;: &#x27;&#x27;, &#x27;log_filename&#x27;: &#x27;httpserver.log&#x27;, &#x27;profiler_dir&#x27;: None, &#x27;args&#x27;: [&#x27;&#x27;], &#x27;socket_timeout&#x27;: 5, &#x27;ssl_ca_certificate&#x27;: None, &#x27;scheduler&#x27;: None, &#x27;interfaces&#x27;: None, &#x27;ssl_private_key&#x27;: &#x27;&#x27;, &#x27;gae&#x27;: None, &#x27;password&#x27;: &#x27;******&#x27;, &#x27;request_queue_size&#x27;: 5, &#x27;ssl_certificate&#x27;: &#x27;&#x27;, &#x27;cronjob&#x27;: False, &#x27;numthreads&#x27;: None, &#x27;quiet&#x27;: False, &#x27;import_models&#x27;: False, &#x27;timeout&#x27;: 10, &#x27;plain&#x27;: False, &#x27;nobanner&#x27;: False}&gt;</div></td></tr><tr><td style="font-weight:bold;vertical-align:top;">db_sessions</td><td style="vertical-align:top;">:</td><td><div>set([])</div></td></tr><tr><td style="font-weight:bold;vertical-align:top;">debugging</td><td style="vertical-align:top;">:</td><td><div>False</div></td></tr><tr><td style="font-weight:bold;vertical-align:top;">gluon_parent</td><td style="vertical-align:top;">:</td><td><div>/home/piry/Documents/web2py</div></td></tr><tr><td style="font-weight:bold;vertical-align:top;">is_jython</td><td style="vertical-align:top;">:</td><td><div>False</div></td></tr><tr><td style="font-weight:bold;vertical-align:top;">is_pypy</td><td style="vertical-align:top;">:</td><td><div>False</div></td></tr><tr><td style="font-weight:bold;vertical-align:top;">is_source</td><td style="vertical-align:top;">:</td><td><div>True</div></td></tr><tr><td style="font-weight:bold;vertical-align:top;">local_hosts</td><td style="vertical-align:top;">:</td><td><div><table><tr><td><div>147.99.65.46</div></td></tr><tr><td><div>mbipi</div></td></tr><tr><td><div>::ffff:127.0.0.1</div></td></tr><tr><td><div>::1</div></td></tr><tr><td><div>localhost6.localdomain6</div></td></tr><tr><td><div>127.0.0.1</div></td></tr></table></div></td></tr><tr><td style="font-weight:bold;vertical-align:top;">web2py_version</td><td style="vertical-align:top;">:</td><td><div>2.14.6-stable+timestamp.2016.05.10.00.21.47</div></td></tr></table></div></td></tr><tr><td style="font-weight:bold;vertical-align:top;">is_https</td><td style="vertical-align:top;">:</td><td><div>False</div></td></tr><tr><td style="font-weight:bold;vertical-align:top;">is_local</td><td style="vertical-align:top;">:</td><td><div>True</div></td></tr><tr><td style="font-weight:bold;vertical-align:top;">is_restful</td><td style="vertical-align:top;">:</td><td><div>False</div></td></tr><tr><td style="font-weight:bold;vertical-align:top;">is_scheduler</td><td style="vertical-align:top;">:</td><td><div>False</div></td></tr><tr><td style="font-weight:bold;vertical-align:top;">is_shell</td><td style="vertical-align:top;">:</td><td><div>False</div></td></tr><tr><td style="font-weight:bold;vertical-align:top;">now</td><td style="vertical-align:top;">:</td><td><div>datetime.datetime(2016, 9, 23, 16, 29, 21, 258855)</div></td></tr><tr><td style="font-weight:bold;vertical-align:top;">raw_args</td><td style="vertical-align:top;">:</td><td><div></div></td></tr><tr><td style="font-weight:bold;vertical-align:top;">raw_extension</td><td style="vertical-align:top;">:</td><td><div>None</div></td></tr><tr><td style="font-weight:bold;vertical-align:top;">url</td><td style="vertical-align:top;">:</td><td><div>/pcidev/user/my_reviews</div></td></tr><tr><td style="font-weight:bold;vertical-align:top;">utcnow</td><td style="vertical-align:top;">:</td><td><div>datetime.datetime(2016, 9, 23, 14, 29, 21, 258871)</div></td></tr><tr><td style="font-weight:bold;vertical-align:top;">wsgi</td><td style="vertical-align:top;">:</td><td><div>&lt;gluon.main.LazyWSGI object at 0x7f1fc1584b90&gt;</div></td></tr></table></div>'
tRp58
sS'frames'
p59
(lp60
(dp61
S'file'
p62
S'/home/piry/W/web2py/gluon/restricted.py'
p63
sS'dump'
p64
(dp65
S'environment'
p66
S"{'A': <class 'gluon.html.A'>, 'ANY_OF': <class 'gluon.validators.ANY_OF'>, 'ASSIGNJS': <function ASSIGNJS>, 'AppConfig': <function AppConfig>, 'Auth': <class 'gluon.tools.Auth'>, 'B': <class 'gluon.html.B'>, 'BEAUTIFY': <class 'gluon.html.BEAUTIFY'>, 'BODY': <class 'gluon.html.BODY'>, 'BR': <class 'gluon.html.BR'>, 'BUTTON': <class 'gluon.html.BUTTON'>, ...}"
p67
sS'ccode'
p68
S'<code object <module> at 0x7f1fc1679d30, file "/...pcidev/views/default/reviewsLayout.html", line 1>'
p69
ssS'lnum'
p70
I227
sS'lines'
p71
(dp72
I224
S'            ccode = code'
p73
sI225
S'        else:'
p74
sI226
S'            ccode = compile2(code, layer)'
p75
sI227
S'        exec ccode in environment'
p76
sI228
S'    except HTTP:'
p77
sI229
S'        raise'
p78
sI230
S'    except RestrictedError:'
p79
sI231
S'        # do not encapsulate (obfuscate) the original RestrictedError'
p80
sI222
S'    try:'
p81
sI223
S'        if isinstance(code, types.CodeType):'
p82
ssS'call'
p83
S'(code=r"response.write(\'<!DOCTYPE html>\\n<!--[if (gt IE ...nse.write(\'\\n  </body>\\n</html>\\n\', escape=False)", environment={\'A\': <class \'gluon.html.A\'>, \'ANY_OF\': <class \'gluon.validators.ANY_OF\'>, \'ASSIGNJS\': <function ASSIGNJS>, \'AppConfig\': <function AppConfig>, \'Auth\': <class \'gluon.tools.Auth\'>, \'B\': <class \'gluon.html.B\'>, \'BEAUTIFY\': <class \'gluon.html.BEAUTIFY\'>, \'BODY\': <class \'gluon.html.BODY\'>, \'BR\': <class \'gluon.html.BR\'>, \'BUTTON\': <class \'gluon.html.BUTTON\'>, ...}, layer=\'/home/piry/Documents/web2py/applications/pcidev/views/default/reviewsLayout.html\')'
p84
sS'func'
p85
S'restricted'
p86
sa(dp87
g62
S'/home/piry/Documents/web2py/applications/pcidev/views/default/reviewsLayout.html'
p88
sg64
(dp89
sg70
I141
sg71
(dp90
I132
S"    response.write('\\n   ', escape=False)"
p91
sI133
S'    response.write(grid.update_form)'
p92
sI134
S"    response.write('\\n', escape=False)"
p93
sI135
S'elif grid.view_form:'
p94
sI136
S"    response.write('\\n   ', escape=False)"
p95
sI137
S'    response.write(grid.view_form)'
p96
sI138
S"    response.write('\\n', escape=False)"
p97
sI139
S'else:'
p98
sI140
S"    response.write('\\n   ', escape=False)"
p99
sI141
S'    response.write(grid)'
p100
sI142
S"    response.write('\\n', escape=False)"
p101
sI143
S'    pass'
p102
sI144
S"response.write('\\n</div>\\n\\n', escape=False)"
p103
sI145
S"if 'myAcceptBtn' in locals() and myAcceptBtn and (grid.create_form or grid.update_form or grid.view_form):"
p104
sI146
S"    response.write('\\n\\t', escape=False)"
p105
sI147
S'    response.write(myAcceptBtn)'
p106
sI148
S"    response.write('\\n\\t', escape=False)"
p107
sI149
S'    pass'
p108
sI150
S"response.write('\\n', escape=False)"
p109
sI151
S"response.write('\\n        ', escape=False)"
p110
ssg83
S'()'
p111
sg85
S'<module>'
p112
sa(dp113
g62
S'/home/piry/W/web2py/gluon/globals.py'
p114
sg64
(dp115
S'self.body.write'
p116
S'<built-in method write of cStringIO.StringO object>'
p117
sS'self.body'
p118
S'<cStringIO.StringO object>'
p119
sS'self'
p120
S"<Storage {'body': <cStringIO.StringO object at 0...c11f2e60>, 'view': 'default/reviewsLayout.html'}>"
p121
sS'global xmlescape'
p122
S'<function xmlescape>'
p123
sS'data'
p124
S'<gluon.html.DIV object>'
p125
ssg70
I430
sg71
(dp126
I425
S''
sI426
S'    def write(self, data, escape=True):'
p127
sI427
S'        if not escape:'
p128
sI428
S'            self.body.write(str(data))'
p129
sI429
S'        else:'
p130
sI430
S'            self.body.write(xmlescape(data))'
p131
sI431
S''
sI432
S'    def render(self, *a, **b):'
p132
sI433
S'        from compileapp import run_view_in'
p133
sI434
S'        if len(a) > 2:'
p134
ssg83
S"(self=<Storage {'body': <cStringIO.StringO object at 0...c11f2e60>, 'view': 'default/reviewsLayout.html'}>, data=<gluon.html.DIV object>, escape=True)"
p135
sg85
S'write'
p136
sa(dp137
g62
S'/home/piry/W/web2py/gluon/html.py'
p138
sg64
(dp139
S'data'
p140
S'<gluon.html.DIV object>'
p141
sS'data.xml'
p142
S'<bound method DIV.xml of <gluon.html.DIV object>>'
p143
ssg70
I131
sg71
(dp144
I128
S''
sI129
S'    # first try the xml function'
p145
sI130
S"    if hasattr(data, 'xml') and callable(data.xml):"
p146
sI131
S'        return data.xml()'
p147
sI132
S''
sI133
S'    # otherwise, make it a string'
p148
sI134
S'    if not isinstance(data, (str, unicode)):'
p149
sI135
S'        data = str(data)'
p150
sI126
S'        quote: optional (default False)'
p151
sI127
S'    """'
p152
ssg83
S'(data=<gluon.html.DIV object>, quote=True)'
p153
sg85
S'xmlescape'
p154
sa(dp155
g62
S'/home/piry/W/web2py/gluon/html.py'
p156
sg64
(dp157
S'fa'
p158
S'undefined'
p159
sS'self'
p160
S'<gluon.html.DIV object>'
p161
sS'co'
p162
g159
sS'self._xml'
p163
S'<bound method DIV._xml of <gluon.html.DIV object>>'
p164
ssg70
I963
sg71
(dp165
I960
S'        generates the xml for this component.'
p166
sI961
S'        """'
p167
sI962
S''
sI963
S'        (fa, co) = self._xml()'
p168
sI964
S''
sI965
S'        if not self.tag:'
p169
sI966
S'            return co'
p170
sI967
S''
sI958
S'    def xml(self):'
p171
sI959
S'        """'
p172
ssg83
S'(self=<gluon.html.DIV object>)'
p173
sg85
S'xml'
p174
sa(dp175
g62
S'/home/piry/W/web2py/gluon/html.py'
p176
sg64
(dp177
S'self'
p178
S'<gluon.html.DIV object>'
p179
sS'self.components'
p180
S'[<gluon.html.DIV object>, <gluon.html.DIV object>]'
p181
ssg70
I955
sg71
(dp182
I950
S"        fa = ''"
p183
sI951
S'        for name, value in attr:'
p184
sI952
S'            fa += \' %s="%s"\' % (name, xmlescape(value, True))'
p185
sI953
S'        # get the xml for the inner components'
p186
sI954
S'        co = join([xmlescape(component) for component in'
p187
sI955
S'                   self.components])'
p188
sI956
S'        return (fa, co)'
p189
sI957
S''
sI958
S'    def xml(self):'
p190
sI959
S'        """'
p191
ssg83
S'(self=<gluon.html.DIV object>)'
p192
sg85
S'_xml'
p193
sa(dp194
g62
S'/home/piry/W/web2py/gluon/html.py'
p195
sg64
(dp196
S'data'
p197
S'<gluon.html.DIV object>'
p198
sS'data.xml'
p199
S'<bound method DIV.xml of <gluon.html.DIV object>>'
p200
ssg70
I131
sg71
(dp201
I128
S''
sI129
S'    # first try the xml function'
p202
sI130
S"    if hasattr(data, 'xml') and callable(data.xml):"
p203
sI131
S'        return data.xml()'
p204
sI132
S''
sI133
S'    # otherwise, make it a string'
p205
sI134
S'    if not isinstance(data, (str, unicode)):'
p206
sI135
S'        data = str(data)'
p207
sI126
S'        quote: optional (default False)'
p208
sI127
S'    """'
p209
ssg83
S'(data=<gluon.html.DIV object>, quote=True)'
p210
sg85
g154
sa(dp211
g62
S'/home/piry/W/web2py/gluon/html.py'
p212
sg64
(dp213
S'fa'
p214
g159
sS'self'
p215
S'<gluon.html.DIV object>'
p216
sS'co'
p217
g159
sS'self._xml'
p218
S'<bound method DIV._xml of <gluon.html.DIV object>>'
p219
ssg70
I963
sg71
(dp220
I960
S'        generates the xml for this component.'
p221
sI961
S'        """'
p222
sI962
S''
sI963
S'        (fa, co) = self._xml()'
p223
sI964
S''
sI965
S'        if not self.tag:'
p224
sI966
S'            return co'
p225
sI967
S''
sI958
S'    def xml(self):'
p226
sI959
S'        """'
p227
ssg83
S'(self=<gluon.html.DIV object>)'
p228
sg85
g174
sa(dp229
g62
S'/home/piry/W/web2py/gluon/html.py'
p230
sg64
(dp231
S'self'
p232
S'<gluon.html.DIV object>'
p233
sS'self.components'
p234
S'[<gluon.html.DIV object>]'
p235
ssg70
I955
sg71
(dp236
I950
S"        fa = ''"
p237
sI951
S'        for name, value in attr:'
p238
sI952
S'            fa += \' %s="%s"\' % (name, xmlescape(value, True))'
p239
sI953
S'        # get the xml for the inner components'
p240
sI954
S'        co = join([xmlescape(component) for component in'
p241
sI955
S'                   self.components])'
p242
sI956
S'        return (fa, co)'
p243
sI957
S''
sI958
S'    def xml(self):'
p244
sI959
S'        """'
p245
ssg83
S'(self=<gluon.html.DIV object>)'
p246
sg85
g193
sa(dp247
g62
S'/home/piry/W/web2py/gluon/html.py'
p248
sg64
(dp249
S'data'
p250
S'<gluon.html.DIV object>'
p251
sS'data.xml'
p252
S'<bound method DIV.xml of <gluon.html.DIV object>>'
p253
ssg70
I131
sg71
(dp254
I128
S''
sI129
S'    # first try the xml function'
p255
sI130
S"    if hasattr(data, 'xml') and callable(data.xml):"
p256
sI131
S'        return data.xml()'
p257
sI132
S''
sI133
S'    # otherwise, make it a string'
p258
sI134
S'    if not isinstance(data, (str, unicode)):'
p259
sI135
S'        data = str(data)'
p260
sI126
S'        quote: optional (default False)'
p261
sI127
S'    """'
p262
ssg83
S'(data=<gluon.html.DIV object>, quote=True)'
p263
sg85
g154
sa(dp264
g62
S'/home/piry/W/web2py/gluon/html.py'
p265
sg64
(dp266
S'fa'
p267
g159
sS'self'
p268
S'<gluon.html.DIV object>'
p269
sS'co'
p270
g159
sS'self._xml'
p271
S'<bound method DIV._xml of <gluon.html.DIV object>>'
p272
ssg70
I963
sg71
(dp273
I960
S'        generates the xml for this component.'
p274
sI961
S'        """'
p275
sI962
S''
sI963
S'        (fa, co) = self._xml()'
p276
sI964
S''
sI965
S'        if not self.tag:'
p277
sI966
S'            return co'
p278
sI967
S''
sI958
S'    def xml(self):'
p279
sI959
S'        """'
p280
ssg83
S'(self=<gluon.html.DIV object>)'
p281
sg85
g174
sa(dp282
g62
S'/home/piry/W/web2py/gluon/html.py'
p283
sg64
(dp284
S'self'
p285
S'<gluon.html.DIV object>'
p286
sS'self.components'
p287
S'[<gluon.html.TABLE object>]'
p288
ssg70
I955
sg71
(dp289
I950
S"        fa = ''"
p290
sI951
S'        for name, value in attr:'
p291
sI952
S'            fa += \' %s="%s"\' % (name, xmlescape(value, True))'
p292
sI953
S'        # get the xml for the inner components'
p293
sI954
S'        co = join([xmlescape(component) for component in'
p294
sI955
S'                   self.components])'
p295
sI956
S'        return (fa, co)'
p296
sI957
S''
sI958
S'    def xml(self):'
p297
sI959
S'        """'
p298
ssg83
S'(self=<gluon.html.DIV object>)'
p299
sg85
g193
sa(dp300
g62
S'/home/piry/W/web2py/gluon/html.py'
p301
sg64
(dp302
S'data'
p303
S'<gluon.html.TABLE object>'
p304
sS'data.xml'
p305
S'<bound method TABLE.xml of <gluon.html.TABLE object>>'
p306
ssg70
I131
sg71
(dp307
I128
S''
sI129
S'    # first try the xml function'
p308
sI130
S"    if hasattr(data, 'xml') and callable(data.xml):"
p309
sI131
S'        return data.xml()'
p310
sI132
S''
sI133
S'    # otherwise, make it a string'
p311
sI134
S'    if not isinstance(data, (str, unicode)):'
p312
sI135
S'        data = str(data)'
p313
sI126
S'        quote: optional (default False)'
p314
sI127
S'    """'
p315
ssg83
S'(data=<gluon.html.TABLE object>, quote=True)'
p316
sg85
g154
sa(dp317
g62
S'/home/piry/W/web2py/gluon/html.py'
p318
sg64
(dp319
S'fa'
p320
g159
sS'self'
p321
S'<gluon.html.TABLE object>'
p322
sS'co'
p323
g159
sS'self._xml'
p324
S'<bound method TABLE._xml of <gluon.html.TABLE object>>'
p325
ssg70
I963
sg71
(dp326
I960
S'        generates the xml for this component.'
p327
sI961
S'        """'
p328
sI962
S''
sI963
S'        (fa, co) = self._xml()'
p329
sI964
S''
sI965
S'        if not self.tag:'
p330
sI966
S'            return co'
p331
sI967
S''
sI958
S'    def xml(self):'
p332
sI959
S'        """'
p333
ssg83
S'(self=<gluon.html.TABLE object>)'
p334
sg85
g174
sa(dp335
g62
S'/home/piry/W/web2py/gluon/html.py'
p336
sg64
(dp337
S'self'
p338
S'<gluon.html.TABLE object>'
p339
sS'self.components'
p340
S'[<gluon.html.COLGROUP object>, <gluon.html.THEAD object>, <gluon.html.TBODY object>]'
p341
ssg70
I955
sg71
(dp342
I950
S"        fa = ''"
p343
sI951
S'        for name, value in attr:'
p344
sI952
S'            fa += \' %s="%s"\' % (name, xmlescape(value, True))'
p345
sI953
S'        # get the xml for the inner components'
p346
sI954
S'        co = join([xmlescape(component) for component in'
p347
sI955
S'                   self.components])'
p348
sI956
S'        return (fa, co)'
p349
sI957
S''
sI958
S'    def xml(self):'
p350
sI959
S'        """'
p351
ssg83
S'(self=<gluon.html.TABLE object>)'
p352
sg85
g193
sa(dp353
g62
S'/home/piry/W/web2py/gluon/html.py'
p354
sg64
(dp355
S'data'
p356
S'<gluon.html.TBODY object>'
p357
sS'data.xml'
p358
S'<bound method TBODY.xml of <gluon.html.TBODY object>>'
p359
ssg70
I131
sg71
(dp360
I128
S''
sI129
S'    # first try the xml function'
p361
sI130
S"    if hasattr(data, 'xml') and callable(data.xml):"
p362
sI131
S'        return data.xml()'
p363
sI132
S''
sI133
S'    # otherwise, make it a string'
p364
sI134
S'    if not isinstance(data, (str, unicode)):'
p365
sI135
S'        data = str(data)'
p366
sI126
S'        quote: optional (default False)'
p367
sI127
S'    """'
p368
ssg83
S'(data=<gluon.html.TBODY object>, quote=True)'
p369
sg85
g154
sa(dp370
g62
S'/home/piry/W/web2py/gluon/html.py'
p371
sg64
(dp372
S'fa'
p373
g159
sS'self'
p374
S'<gluon.html.TBODY object>'
p375
sS'co'
p376
g159
sS'self._xml'
p377
S'<bound method TBODY._xml of <gluon.html.TBODY object>>'
p378
ssg70
I963
sg71
(dp379
I960
S'        generates the xml for this component.'
p380
sI961
S'        """'
p381
sI962
S''
sI963
S'        (fa, co) = self._xml()'
p382
sI964
S''
sI965
S'        if not self.tag:'
p383
sI966
S'            return co'
p384
sI967
S''
sI958
S'    def xml(self):'
p385
sI959
S'        """'
p386
ssg83
S'(self=<gluon.html.TBODY object>)'
p387
sg85
g174
sa(dp388
g62
S'/home/piry/W/web2py/gluon/html.py'
p389
sg64
(dp390
S'self'
p391
S'<gluon.html.TBODY object>'
p392
sS'self.components'
p393
S'[<gluon.html.TR object>, <gluon.html.TR object>, <gluon.html.TR object>, <gluon.html.TR object>, <gluon.html.TR object>, <gluon.html.TR object>]'
p394
ssg70
I955
sg71
(dp395
I950
S"        fa = ''"
p396
sI951
S'        for name, value in attr:'
p397
sI952
S'            fa += \' %s="%s"\' % (name, xmlescape(value, True))'
p398
sI953
S'        # get the xml for the inner components'
p399
sI954
S'        co = join([xmlescape(component) for component in'
p400
sI955
S'                   self.components])'
p401
sI956
S'        return (fa, co)'
p402
sI957
S''
sI958
S'    def xml(self):'
p403
sI959
S'        """'
p404
ssg83
S'(self=<gluon.html.TBODY object>)'
p405
sg85
g193
sa(dp406
g62
S'/home/piry/W/web2py/gluon/html.py'
p407
sg64
(dp408
S'data'
p409
S'<gluon.html.TR object>'
p410
sS'data.xml'
p411
S'<bound method TR.xml of <gluon.html.TR object>>'
p412
ssg70
I131
sg71
(dp413
I128
S''
sI129
S'    # first try the xml function'
p414
sI130
S"    if hasattr(data, 'xml') and callable(data.xml):"
p415
sI131
S'        return data.xml()'
p416
sI132
S''
sI133
S'    # otherwise, make it a string'
p417
sI134
S'    if not isinstance(data, (str, unicode)):'
p418
sI135
S'        data = str(data)'
p419
sI126
S'        quote: optional (default False)'
p420
sI127
S'    """'
p421
ssg83
S'(data=<gluon.html.TR object>, quote=True)'
p422
sg85
g154
sa(dp423
g62
S'/home/piry/W/web2py/gluon/html.py'
p424
sg64
(dp425
S'fa'
p426
g159
sS'self'
p427
S'<gluon.html.TR object>'
p428
sS'co'
p429
g159
sS'self._xml'
p430
S'<bound method TR._xml of <gluon.html.TR object>>'
p431
ssg70
I963
sg71
(dp432
I960
S'        generates the xml for this component.'
p433
sI961
S'        """'
p434
sI962
S''
sI963
S'        (fa, co) = self._xml()'
p435
sI964
S''
sI965
S'        if not self.tag:'
p436
sI966
S'            return co'
p437
sI967
S''
sI958
S'    def xml(self):'
p438
sI959
S'        """'
p439
ssg83
S'(self=<gluon.html.TR object>)'
p440
sg85
g174
sa(dp441
g62
S'/home/piry/W/web2py/gluon/html.py'
p442
sg64
(dp443
S'self'
p444
S'<gluon.html.TR object>'
p445
sS'self.components'
p446
S'[<gluon.html.TD object>, <gluon.html.TD object>, <gluon.html.TD object>, <gluon.html.TD object>, <gluon.html.TD object>, <gluon.html.TD object>, <gluon.html.TD object>, <gluon.html.TD object>]'
p447
ssg70
I955
sg71
(dp448
I950
S"        fa = ''"
p449
sI951
S'        for name, value in attr:'
p450
sI952
S'            fa += \' %s="%s"\' % (name, xmlescape(value, True))'
p451
sI953
S'        # get the xml for the inner components'
p452
sI954
S'        co = join([xmlescape(component) for component in'
p453
sI955
S'                   self.components])'
p454
sI956
S'        return (fa, co)'
p455
sI957
S''
sI958
S'    def xml(self):'
p456
sI959
S'        """'
p457
ssg83
S'(self=<gluon.html.TR object>)'
p458
sg85
g193
sa(dp459
g62
S'/home/piry/W/web2py/gluon/html.py'
p460
sg64
(dp461
S'data'
p462
S'<gluon.html.TD object>'
p463
sS'data.xml'
p464
S'<bound method TD.xml of <gluon.html.TD object>>'
p465
ssg70
I131
sg71
(dp466
I128
S''
sI129
S'    # first try the xml function'
p467
sI130
S"    if hasattr(data, 'xml') and callable(data.xml):"
p468
sI131
S'        return data.xml()'
p469
sI132
S''
sI133
S'    # otherwise, make it a string'
p470
sI134
S'    if not isinstance(data, (str, unicode)):'
p471
sI135
S'        data = str(data)'
p472
sI126
S'        quote: optional (default False)'
p473
sI127
S'    """'
p474
ssg83
S'(data=<gluon.html.TD object>, quote=True)'
p475
sg85
g154
sa(dp476
g62
S'/home/piry/W/web2py/gluon/html.py'
p477
sg64
(dp478
S'fa'
p479
g159
sS'self'
p480
S'<gluon.html.TD object>'
p481
sS'co'
p482
g159
sS'self._xml'
p483
S'<bound method TD._xml of <gluon.html.TD object>>'
p484
ssg70
I963
sg71
(dp485
I960
S'        generates the xml for this component.'
p486
sI961
S'        """'
p487
sI962
S''
sI963
S'        (fa, co) = self._xml()'
p488
sI964
S''
sI965
S'        if not self.tag:'
p489
sI966
S'            return co'
p490
sI967
S''
sI958
S'    def xml(self):'
p491
sI959
S'        """'
p492
ssg83
S'(self=<gluon.html.TD object>)'
p493
sg85
g174
sa(dp494
g62
S'/home/piry/W/web2py/gluon/html.py'
p495
sg64
(dp496
S'self'
p497
S'<gluon.html.TD object>'
p498
sS'self.components'
p499
S'[<gluon.html.I object>]'
p500
ssg70
I955
sg71
(dp501
I950
S"        fa = ''"
p502
sI951
S'        for name, value in attr:'
p503
sI952
S'            fa += \' %s="%s"\' % (name, xmlescape(value, True))'
p504
sI953
S'        # get the xml for the inner components'
p505
sI954
S'        co = join([xmlescape(component) for component in'
p506
sI955
S'                   self.components])'
p507
sI956
S'        return (fa, co)'
p508
sI957
S''
sI958
S'    def xml(self):'
p509
sI959
S'        """'
p510
ssg83
S'(self=<gluon.html.TD object>)'
p511
sg85
g193
sa(dp512
g62
S'/home/piry/W/web2py/gluon/html.py'
p513
sg64
(dp514
S'data'
p515
S'<gluon.html.I object>'
p516
sS'data.xml'
p517
S'<bound method I.xml of <gluon.html.I object>>'
p518
ssg70
I131
sg71
(dp519
I128
S''
sI129
S'    # first try the xml function'
p520
sI130
S"    if hasattr(data, 'xml') and callable(data.xml):"
p521
sI131
S'        return data.xml()'
p522
sI132
S''
sI133
S'    # otherwise, make it a string'
p523
sI134
S'    if not isinstance(data, (str, unicode)):'
p524
sI135
S'        data = str(data)'
p525
sI126
S'        quote: optional (default False)'
p526
sI127
S'    """'
p527
ssg83
S'(data=<gluon.html.I object>, quote=True)'
p528
sg85
g154
sa(dp529
g62
S'/home/piry/W/web2py/gluon/html.py'
p530
sg64
(dp531
S'fa'
p532
g159
sS'self'
p533
S'<gluon.html.I object>'
p534
sS'co'
p535
g159
sS'self._xml'
p536
S'<bound method I._xml of <gluon.html.I object>>'
p537
ssg70
I963
sg71
(dp538
I960
S'        generates the xml for this component.'
p539
sI961
S'        """'
p540
sI962
S''
sI963
S'        (fa, co) = self._xml()'
p541
sI964
S''
sI965
S'        if not self.tag:'
p542
sI966
S'            return co'
p543
sI967
S''
sI958
S'    def xml(self):'
p544
sI959
S'        """'
p545
ssg83
S'(self=<gluon.html.I object>)'
p546
sg85
g174
sa(dp547
g62
S'/home/piry/W/web2py/gluon/html.py'
p548
sg64
(dp549
S'self'
p550
S'<gluon.html.I object>'
p551
sS'self.components'
p552
S"[<lazyT 'Started today'>]"
p553
ssg70
I955
sg71
(dp554
I950
S"        fa = ''"
p555
sI951
S'        for name, value in attr:'
p556
sI952
S'            fa += \' %s="%s"\' % (name, xmlescape(value, True))'
p557
sI953
S'        # get the xml for the inner components'
p558
sI954
S'        co = join([xmlescape(component) for component in'
p559
sI955
S'                   self.components])'
p560
sI956
S'        return (fa, co)'
p561
sI957
S''
sI958
S'    def xml(self):'
p562
sI959
S'        """'
p563
ssg83
S'(self=<gluon.html.I object>)'
p564
sg85
g193
sa(dp565
g62
S'/home/piry/W/web2py/gluon/html.py'
p566
sg64
(dp567
S'data'
p568
S"<lazyT 'Started today'>"
p569
sS'data.xml'
p570
S"<bound method lazyT.xml of <lazyT 'Started today'>>"
p571
ssg70
I131
sg71
(dp572
I128
S''
sI129
S'    # first try the xml function'
p573
sI130
S"    if hasattr(data, 'xml') and callable(data.xml):"
p574
sI131
S'        return data.xml()'
p575
sI132
S''
sI133
S'    # otherwise, make it a string'
p576
sI134
S'    if not isinstance(data, (str, unicode)):'
p577
sI135
S'        data = str(data)'
p578
sI126
S'        quote: optional (default False)'
p579
sI127
S'    """'
p580
ssg83
S"(data=<lazyT 'Started today'>, quote=True)"
p581
sg85
g154
sa(dp582
g62
S'/home/piry/W/web2py/gluon/languages.py'
p583
sg64
(dp584
S'builtinstr'
p585
S"<type 'str'>"
p586
sS'self'
p587
S"<lazyT 'Started today'>"
p588
sS'global escape'
p589
S'<function escape>'
p590
sS'self.M'
p591
S'False'
p592
ssg70
I429
sg71
(dp593
I424
S''
sI425
S'    def __len__(self):'
p594
sI426
S'        return len(str(self))'
p595
sI427
S''
sI428
S'    def xml(self):'
p596
sI429
S'        return str(self) if self.M else escape(str(self))'
p597
sI430
S''
sI431
S'    def encode(self, *a, **b):'
p598
sI432
S'        return str(self).encode(*a, **b)'
p599
sI433
S''
ssg83
S"(self=<lazyT 'Started today'>)"
p600
sg85
g174
sa(dp601
g62
S'/home/piry/W/web2py/gluon/languages.py'
p602
sg64
(dp603
S'self.T.translate'
p604
S'<bound method translator.translate of <gluon.languages.translator object>>'
p605
sS'self.s'
p606
S'0'
sS'self'
p607
S"<lazyT 'Started today'>"
p608
sS'self.T'
p609
S'<gluon.languages.translator object>'
p610
sS'self.m'
p611
S"'Started today'"
p612
ssg70
I389
sg71
(dp613
I384
S'    def __repr__(self):'
p614
sI385
S'        return "<lazyT %s>" % (repr(Utf8(self.m)), )'
p615
sI386
S''
sI387
S'    def __str__(self):'
p616
sI388
S'        return str(self.T.apply_filter(self.m, self.s, self.f, self.t) if self.M else'
p617
sI389
S'                   self.T.translate(self.m, self.s))'
p618
sI390
S''
sI391
S'    def __eq__(self, other):'
p619
sI392
S'        return str(self) == str(other)'
p620
sI393
S''
ssg83
S"(self=<lazyT 'Started today'>)"
p621
sg85
g28
sa(dp622
g62
S'/home/piry/W/web2py/gluon/languages.py'
p623
sg64
(dp624
S'symbols'
p625
S'(0,)'
p626
sS'message'
p627
S"'Started today'"
p628
sS'self.params_substitution'
p629
S'<bound method translator.params_substitution of <gluon.languages.translator object>>'
p630
sS'self'
p631
S'<gluon.languages.translator object>'
p632
ssg70
I949
sg71
(dp633
I944
S'                    symbols = (symbols,)'
p634
sI945
S'                symbols = tuple('
p635
sI946
S'                    value if isinstance(value, NUMBERS)'
p636
sI947
S'                    else str(value).translate(ttab_in)'
p637
sI948
S'                    for value in symbols)'
p638
sI949
S'            message = self.params_substitution(message, symbols)'
p639
sI950
S'        return message.translate(ttab_out)'
p640
sI951
S''
sI952
S''
sI953
S'def findT(path, language=DEFAULT_LANGUAGE):'
p641
ssg83
S"(self=<gluon.languages.translator object>, message='Started today', symbols=(0,))"
p642
sg85
S'translate'
p643
sa(dp644
g62
S'/home/piry/W/web2py/gluon/languages.py'
p645
sg64
(dp646
S'symbols'
p647
S'(0,)'
p648
sS'message'
p649
S"'Started today'"
p650
ssg70
I926
sg71
(dp651
I928
S'        return message'
p652
sI929
S''
sI930
S'    def translate(self, message, symbols):'
p653
sI921
S'            if part == s:'
p654
sI922
S'                part = regex_plural_dict.sub(sub_dict, s)'
p655
sI923
S'                if part == s:'
p656
sI924
S'                    return m.group(0)'
p657
sI925
S'            return part'
p658
sI926
S'        message = message % symbols'
p659
sI927
S'        message = regex_plural.sub(sub_plural, message)'
p660
ssg83
S"(self=<gluon.languages.translator object>, message='Started today', symbols=(0,))"
p661
sg85
S'params_substitution'
p662
sasS'pyver'
p663
S'Python 2.7.6: /usr/bin/python (prefix: /usr)'
p664
sS'session'
p665
g57
(S'sT*\x00\x00<div><table><tr><td style="font-weight:bold;vertical-align:top;">auth</td><td style="vertical-align:top;">:</td><td><div><table><tr><td style="font-weight:bold;vertical-align:top;">expiration</td><td style="vertical-align:top;">:</td><td><div>2592000</div></td></tr><tr><td style="font-weight:bold;vertical-align:top;">hmac_key</td><td style="vertical-align:top;">:</td><td><div>1b6d82e0-a596-4132-b41d-a75056f266dc</div></td></tr><tr><td style="font-weight:bold;vertical-align:top;">last_visit</td><td style="vertical-align:top;">:</td><td><div>datetime.datetime(2016, 9, 23, 15, 3, 54, 929549)</div></td></tr><tr><td style="font-weight:bold;vertical-align:top;">remember_me</td><td style="vertical-align:top;">:</td><td><div>True</div></td></tr><tr><td style="font-weight:bold;vertical-align:top;">user</td><td style="vertical-align:top;">:</td><td><div><table><tr><td style="font-weight:bold;vertical-align:top;">alerts</td><td style="vertical-align:top;">:</td><td><div><table><tr><td><div>Monday</div></td></tr><tr><td><div>Tuesday</div></td></tr><tr><td><div>Wednesday</div></td></tr><tr><td><div>Thursday</div></td></tr><tr><td><div>Friday</div></td></tr></table></div></td></tr><tr><td style="font-weight:bold;vertical-align:top;">city</td><td style="vertical-align:top;">:</td><td><div>Montpellier</div></td></tr><tr><td style="font-weight:bold;vertical-align:top;">country</td><td style="vertical-align:top;">:</td><td><div>France</div></td></tr><tr><td style="font-weight:bold;vertical-align:top;">email</td><td style="vertical-align:top;">:</td><td><div>piry@supagro.inra.fr</div></td></tr><tr><td style="font-weight:bold;vertical-align:top;">first_name</td><td style="vertical-align:top;">:</td><td><div>Sylvain</div></td></tr><tr><td style="font-weight:bold;vertical-align:top;">id</td><td style="vertical-align:top;">:</td><td><div>1L</div></td></tr><tr><td style="font-weight:bold;vertical-align:top;">institution</td><td style="vertical-align:top;">:</td><td><div>INRA</div></td></tr><tr><td style="font-weight:bold;vertical-align:top;">laboratory</td><td style="vertical-align:top;">:</td><td><div>CBGP</div></td></tr><tr><td style="font-weight:bold;vertical-align:top;">last_name</td><td style="vertical-align:top;">:</td><td><div>Piry</div></td></tr><tr><td style="font-weight:bold;vertical-align:top;">picture_data</td><td style="vertical-align:top;">:</td><td><div>\xff\xd8\xff\xe0\x00\x10JFIF\x00\x01\x01\x01\x00H\x00H\x00\x00\xff\xdb\x00C\x00\x03\x02\x02\x03\x02\x02\x03\x03\x03\x03\x04\x03\x03\x04\x05\x08\x05\x05\x04\x04\x05\n\x07\x07\x06\x08\x0c\n\x0c\x0c\x0b\n\x0b\x0b\r\x0e\x12\x10\r\x0e\x11\x0e\x0b\x0b\x10\x16\x10\x11\x13\x14\x15\x15\x15\x0c\x0f\x17\x18\x16\x14\x18\x12\x14\x15\x14\xff\xdb\x00C\x01\x03\x04\x04\x05\x04\x05\t\x05\x05\t\x14\r\x0b\r\x14\x14\x14\x14\x14\x14\x14\x14\x14\x14\x14\x14\x14\x14\x14\x14\x14\x14\x14\x14\x14\x14\x14\x14\x14\x14\x14\x14\x14\x14\x14\x14\x14\x14\x14\x14\x14\x14\x14\x14\x14\x14\x14\x14\x14\x14\x14\x14\x14\x14\xff\xc0\x00\x11\x08\x00}\x00|\x03\x01&quot;\x00\x02\x11\x01\x03\x11\x01\xff\xc4\x00\x1d\x00\x00\x02\x02\x03\x01\x01\x01\x00\x00\x00\x00\x00\x00\x00\x00\x00\x06\x07\x05\x08\x02\x03\x04\t\x00\x01\xff\xc4\x00=\x10\x00\x01\x03\x02\x04\x05\x02\x04\x04\x04\x05\x03\x05\x00\x00\x00\x01\x02\x03\x04\x05\x11\x00\x06\x12!\x07\x131AQ&quot;a\x08\x14q\x81\x152B\x91#\xa1\xb1\xc1\x16CRr\xe1\x17\xd1\xf03Sbc\x92\xff\xc4\x00\x1b\x01\x00\x02\x02\x03\x01\x00\x00\x00\x00\x00\x00\x00\x00\x00\x00\x00\x03\x06\x04\x05\x00\x01\x02\x07\xff\xc4\x00%\x11\x00\x02\x02\x02\x02\x03\x00\x02\x02\x03\x00\x00\x00\x00\x00\x00\x01\x02\x00\x11\x03!\x04\x12\x051A&quot;2\x13QBa\x81\xff\xda\x00\x0c\x03\x01\x00\x02\x11\x03\x11\x00?\x00\xf3\xd9J-\xcaC\x81[\x85\r\xf1\x7f~\x1d&gt;%fQ\xd9\xa6\xd3\xaa\xb1\x03\xcc\xbe\x11\xcby\xf2\x12Jl\x06\xdbn6\xc5\t\x8d\x08My\x96\xc2\xac\xa5\x1b\x0cZ\x1e\x15Ac1\xf0v q\tL\xfat\x87\x1bC\xf7\xb2\x90\xa0\xad\x87\xd3q\x8a\xce&gt;\x06\xce\xc7~\x84\xb6\xe4\xe6\x18\x94X\xf6e\xa3\xf8\xa6\xe0\xeb\x19\xa7#\xc8\xcdyq\xc6\x95\x123\x88\x94\xf4KiR\x10vQO\xb5\xcd\xed\x8a\xc9/\x8a\x85\x88\x11i\xf1\x90\xa5\xc9\r\x84\xad`\xec;Xy\xc5\x8b\xf8e\xe2\x1a\xa6\xb3.\x95_d\xcd\x88\xda9o\x87\xd4\x14\x827\x04\x10z\x8e\x9bb\xb9\xfcK@\xa7\xf0_\x8b\xd5!F\xa4s\xa0\xd4\xd0\x97\xe9\xa1\xe6H\x8e\x82\xa1\xeb \xfe\xb0\x93{\x0e\x83\xb8\xc4\xa6\xe5g[\x00\xef\xd5\xc8i\xc7\xc4\xdb#^\xe1\x9f\x0f\xea4\xfaK\xf1\xe5\xd6\xddJ^yC\x96\xc2S\xa9d\x13\xd4\x01b:\x1d\xca\xad\x87}.\xab\x97j\x95v\x99T\xb9R\xe3$_\x90\xcb\xc7@\xdb\xa1)\xebo\xb8\xc5\x11\x8d\x9b\xd6$?S\xa9\xca\xe7Isw\x1dP\x02\xfe\x02\x7fk\x000y\x948\x94\xbb\xac\xaa\xa3\xf8kh \xb6\x8b\x90\xb7O[\xaa\xd7\xb0\xc5+\xf6&amp;\xce\xe5\xde2\xaa(K\x99W\xa7@i\xd7[\x84\xb6#\xc7\r\xdfZ\xdf:\x81\x17\xd8\xa5=0\xae\xadDa\xa9\xaa}\xe4*i\xd3\xe8{\x94v\xef\xb2\x88\xbd\xb0%A\xe2\xf3T\t\x0eO\xadV\xd1\x0e\n\xac\xa1\x123heJ\xdb\xf5\xb8\xbb\xa8\x9bvM\x8e\x18\x0b\xe3\xa6A\xce\xb4a\x1a\x82\x89/T\x15\xe8[\x8bHm*\xbe\xd6IV\xea\xeb\xff\x008\x10l\x9f\xe3\x0b\xf8W\xe5\x07b\xd4 \xaeJ\x82\xda,4\xe2t8R\x12A\xfa\xa7\xfb\x8d\xf1\xa2$\xbar\xeb-\xc2nTf\xc2\xf5hyk\xb8Q\xed\xb7Q\xbfQ\x8c\xe8\x1c\x05\xabg\xaa\xfb\xaeMdSa\xb4\x14\xe3\xb2\\$\xb8\x12\x08\xd8\x12H\n\xdf\xa5\xf1\xbd\xde\x05\xb2\xe4\xa6\x11D\x8c\xbeYQB\xe4\x15\x12J\x81#n\xf7\xb8?O\x18\xb2\xc7\xcf\xcf\x8bA\xa4\x17\xe0\xe1\xcd\xb2\xb0\xd9\xc8\xad\xd3]\x83\x1d\xc6\xd0\x0c\x90\x84\xa8\x9b\x00\x92\xa3a\xf6\xbe#\xea\xf1cC\x92\xfaT\xdaJ\x9aYB\xbe\xa0\xe0&#x27;7R+\x19M\rE\x9e\xdb\x8bBJT\xcb\xae\xadGA\x06\xc0\x9e\x96\xeem\xbe\nc\xba\xcdJ\x1ci\t\xd4\xa4\xbe\xd8S\x9b\xdc\xeb\xb9\xbf\xfd\xfe\xf8k\xf1\x9c\xf7\xe4\xbfF\xfe\xa2\xcf\x91\xe0/\x1d;\xaf\xf70\xff\x00\x15@\x88\x90\x840\x92\xe7\xb0\xc4\xad*\xb8\x89\xd7+gH\xf1\x88\xc4\xe5\xd8\xeas\x98\x96\x898\xd8\xc3\xc2\x1b\xe1\nkJA\xb5\xed\x86M\x1b\x8b\x97RvUYM7f\xdb\t\x18\xe4\xfcNB\xb7\xb1\x1e\xd6\xbe:\x19\xad\xd3P\xab?\xa7H\xdf|p\xcb\xe2=\x1e;\xeam\x0cjJv\xb8N93\xafr\x96\xf1c\xe1\xa78pvi\x93\xf2\x8e\xd6(\xcc\xabX\xa9\xc4l\x96\xf4\x8e\xea\xb7O\xbe4d~&quot;\xb9\x962\xbdv++J\x96\xa9\xa9z;D\xfee)7\xb9\xf6\x16\x07\r\xac\x8f\xf1/6\x9f\x06\x97N\x955\xd9Q$\xa5Q\xe74\xf8\x0e\xb4\xebG\xb5\x8f\x81\x89\xac\xc5\xc0\xbe\x1aqZ NG\x90\xde[\xccj@ZR\xeb\xea1_\x1b\xedbn\x83s\x8f0\xc7\x95\xb0\x13\x7fc\xfe@\xb9\xa0&#x27;\xc3v|\xa9TsI\x8b\xcf\\\x89\x0b\x7fS\xc87:\xd1\xddD{o\x8bk\xf19\xc3\xea\x8f\x19x*\xb5R!4ee\xd5s\xdaq\xe0\x02\xdcoI\xd6\x94+\xb1\xb6\xf6\xc7\x9f\x90\xa8un\x11g\x90\xd5A\xd4\xc7q\x97\x95\x1d\xc7\x99sPY\xbd\x8d\x88\xea\x0e=\x0f\xe0\xcee\x91\x9d\xe9K\xcb\x14w\xc2\x08\x86\xa4&lt;\xf3\xc9+i*RM\xd4\x7f\x7f8(=\xd4\x913\xafB&#x27;\x973\xaa\xbc\xc7\x1bkG9\xe6\x97\xa5(\xbd\xd2\x9fr;\x9e\xb8\x98\x87W~\x08\r\xa1\xe2\xb9\xae\xee\\WFG\x7f\xbe5q\x07&amp;K\xe1\xdf\x10k\xf4i\xcf!\xf9T\xf9Kd\xbc\xc8\xb2\x14o\xd4x\xbf\xf2\xc0\xcbun[\x84\xb7\xe8\x17\xdd}\xcf\xdf\xae9U\r\xa9\x9d\xa8Y\x8c\x8a:\xdc\xa8)\xb4\xcdmHo\xa2dLs\xd4\xb3\xd2\xe0+`0\xc8\xca\xb5\xfc\xb9\x94$&quot;KS\xde\xa9U\nl\x86\xe3 \x02\x92;\xa9\xc3p\x9e\x9dE\xce+\xc3ug\x1d*\xe7\x02\xe2;iW\xf58\xdb\x06\xae\xe0(J\x0e\xb3\x7fHQ&gt;\xfd\xaf\xd3\xdb\xbe\x0b\xfcV*p3V\xe5\xfb\xc8\x7f\x10\xfc\xb6\xa3\xae\xa5+D6\x9c\n,6N\x95\xaa\xfd\x12/u\x0e\xd7=M\xce\x1ey#\x8b\xf4j\xf5YU$GDh\xe1\xa5\xbc\x84\xb0\x00\x08\xdcXt\xdc\xec\xab\x9fo|y\x7f\x96\xb3\x1c\xe9\x12\xad%\xc7\x1f,\xa0)(&gt;\x92\x00=\x07\xfaF\x1c\xd9G\x8a\xd2\xa0\x18m2\x94\xadD\xa5\x05\xdb\r-\xef\xeaQ\x1e\xc3a\xfd\xf1\t\xb1u&amp;\xa4\xfcy{,\xf4r\xa9D\xcb\x99\xde\x9d)\xa9\x8cs\xa3-\\\xa0Uk\xa5`X\x94\x9f&quot;\xe4}\xb0\x93\xe2&amp;[w&quot;\xae&lt;X\x8d\xa1t\xc2\nYu(\xb1\xbf\x85\x1f6\xc4\xd7\x0c\xf8\xb7\x0e\xad\x95\xe1\xd3d\xbc\x96\xddB\xca\x91o\xccobI\xff\x00\xcf8)\x91:\x1ed\x85*\x95P!Z\xc7\xa7\xc8=\x88&gt;q&#x27;\x87\xc9&lt;&lt;\xe3!\xf5\xf6\x13\x93\xc5\x1c\xde;b\x1f\xb7\xc8\x8do5\xc8\x824\x96\xae;\x91\x8c\xa4f\x08\xf2\x9b\xbb\x96\n;\xf4\xc6\xfa\xbc\x18\xd4\xd9\xd2!H\xb0u\xa5i&gt;\xfe\xf8\x8f\xf9\x08\xeb@-#Q\xf3\x8fKR\x1dC/\xd9\xe5\xec\xa5\x18\xa3{\x13\x9b\xe7\x1a\x92T\x80\x85+\xed\x8d\xadE\x84\xda,\xa8\xe2\xfe\xe3\x124\xfaB\xd4\xe7\xe5H\xc4\xaa\xa8\x0c\xa8\x92\xb5\xa0+\x19\xeb\xdc\xe4_\xc9A\xa9\xb4\xd8\xac\xd4~]\xe0\xb7\x1biA\xc0\x12m\xad&gt;/\x8c\xa0f\xd7\xe9y\x81oF\xe72\x86U\xe9mJ\xba\x80\n\xb8\xdf\xe9\x8e\x8a\xc5\x1d\xf8\xeb\x8f.\x13\xe3\x94\x7f\xd7\xb8\x17\xf7\xf1\x88\x1a\xbb\xca\x8d=\xa5\xc9eh6\xb2\xc8\x17J\x87\x9b\xe3\xcf\x9f\x18oq\xccd+\xeaM\xe6\\\xf3#0\xcb\\\xc9@;e\xec\x87R\x0e\x90\x0f\x7f8\xb8\x7f\x0b\xb9\xa5.Af-=\xc57&quot;_\xf1\x9du)\xb8Jo`?\xe3\x15\x1d9\x8a&amp;`\x8b\x02\x8dT\x80\xcf\xcb#\xd2\x8a\x8c6@\x92\x94\xf7\n\xb6\xcb\xfb\xe2\xc7p\xba\x04\xee\x1d\xc3\x8fK\xa3\xb8\x8a\xa4\xb9\xe1%\x87\xe3\xa8)+`\xf4$\x8d\xd2A\xea\x0fL\x05EZ\x91\x0f\xefw\x14_\x1e\xf9\x06\x99\x90\xf8\xc2\xe3\xd4\xe9\x8f\xc8Ma\x9f\x9e}.\xafV\x97\t!V\xf0\r\xba\x1cV(\xfc\xc9\x0b%)\xf4\x8e\xf6\xd8\x0cz\xad\xc6~\x1fp\xeb8e\x8a&lt;,\xe7N3\xe4\xb2\x0bo\xd5!(&amp;K\x0b \x93e\x1e\xa9\x1e\x08#\x15G9\xfc\x11\xd5~ZMc\x87U\x08\xb9\xcb/\xa3v\xd8C\xc9\x12\xad\xde\xe9\xd8\x12=\xbfl\x05]P\xf5\x85e..V6\xd2\xb9\n(e\xb2E\xf7\x00[\xf7\xc1fW\xe1\x8dj\xbb\x19\xf9\xcc\xfc\xaa\x19g\xd4\xb2\xec\xb6\xd2\xb0&lt;\xe8*\xbd\xb1\x1dZ\xcb\xd5L\xa5Rr\x15R\x8f*\x9d!\x1e\x9551\xa5\xb6G\xd0m\x89J;\x93\xe0B\\\xa6T\xa6\xc5\xc7\xad\t!V\xf6?a\x89}\x80\x16\x0c\x02\x8b;\x12epd\xe4\x81i\x0f6\xa9\x0f\x82B\x1b\xf5\xa5\t\xecu\x1e\xfe\xdd\xb1\xa6\x9dZvuV;\xc8un\x04\x9b\x91\xab\xd2\x90.-\xfc\xf07WvC\xaaD\x99%\xe4\xa5d\xabQ\x04w;_\x1dT\n\xba\x17$r\x98\x0bX\xfdJ\xfc\xa0\xf9\xb7|\x04\x82v$\x95 \x1a\x96/&#x27;\xe6\x99\xd0\xe40\xfa\x96R\x9b\xa6\xc9\x1b\x12\x91\xdf\xe9\x87\x9ax\x85-\x96`Ou\xc0\xaeo\xe9\xf0\x07\xbf\xdcb\xa6e\xd9\xd2\\p\xbc\xa5\xa9\xc5\x13\xb1=\xb0\xd2n\xaf.\xa7\x02,6\xec\x03V\t7\xdb\x11\xfa\xf6\xb0e\xa21Z&quot;:\xb3UI5\x97\xe1\xd4\xd9iN\x19-\xe9XH\xdc);o\xf6#\x11(\xa8\xbe\xca\xb9a\xb0\xd7\xfb\xb1\xae\x1f\xe2\xd1\xf2?1\xa6\x81\x90\xcc\x84\xd8\xab\xa1\x04\x1b\xff\x00o\xdb\x03Rh\xf5\xfa\xb3\xdc\xc7\xa4\xf2A\xfd(\xbe\xd8x\xf1Y\x19\xf8\xca\xa7\xe6\xa2\x1f\x98\xc6\x13\x96\xc4}\xdc&quot;\xa8U\x9f\x84\x9eg\xce\x04{\x03\x8dq3:_h\xa9s=W\xb7\xe6\x18\x15\x95\x93&amp;$\x7f\x12C\x8f\x7f\xb9G\x11g)\xcbl\x90\x10m\xf5\xc5\xad\x99Iu+f[\xa8Vj\xb1\xcc6Z\x12\x9b\xdc)G\xd3\xa3|9h\xfc;z\x91\x93\xbf\x1c\xcc\x11\xa2\xcfB\x93\xa1\x11\xdb\x90\n\xdb\xbfEi\xef\x80\x1aLzt\x16\x93\x02\x9a\x87\x94\xea\x95{%GQ&gt;\xf8.\x93\xc3\x8c\xd4\x8aP\xa8\xcfR\x98\xa7\x1b\x10\x90\xfaJ\xd5\xf6\xea0\x8f\xb0(G\x11\xfe\xe4\x14\xda\x8d\x15\xa0\x7f\x0c\xd3\x08\x84\xf4;\x12\xae\xf7\x18\x9a\xe1\xbeju\x12\xa4:\xd2\xd4\xd3\xb1\xcd\xc2\xd2\xa3\xa5W\xbf\x8f\xe9\x81\x97\xb2\x9d&amp;K\xe1e\xc5\xfc\xc2E\xb4&lt;\xae\xf8\xec\xcb.&quot;\rI\xe8?.\x19R\xedb\xde\xc9U\xb1\x9f\xf6lK\xb7\xc3&lt;\xdd\x1e\x9d\x90e\xc9\xccQ\xa3&gt;\x89h.6\xd4\x96\xc1\x1e\x06\xe7\xa5\xc7\xf5\xc7&gt;`\xa2\x9c\xdd\x94\xcd_\x86!\xba\x0efihu\xcatGAi\xf4\xf4 \x1b\xe9\x07\n\\\xb9%\xde e\x0c\xcbH\x96\xe2\x10\xb8\xf0\x94\xa8\xaa?\xa1ct\xa7\xaf\xb6\x17\\\r\xe3$\xfc\x9c\xf2\x9a\nH\x0c&lt;R\xe3K\x17\xeb\xdc[{b\x03b\x0cH2r\xe4\xea#g4\xf1~\xa7\x1a\xa3I\xa1\xf17&#x27;&quot;\xa4\xda\x95\xfcH\xf5X\xff\x00\xfadlJ\x15o\xef\x8f\xaa\xb9\x07\x87|b\xa2\xd4\xa1\xd0s\x02x\x7f&amp;8(\x10\x0b\x08S\x00\x83\xd4\x90\x02\xecv\xde\xe6\xd8\xb1mf\x08|Q\xcb\xf1\xaa\x93a\xc4\xa9\xd3\xa2\xb3\xcc\x95\x12K\\\xcd@m\xad\xb3\xd8\x8d\xf0\x83\xce|\x0e\xa0\xe7q^\xa8\xf0\xd6st\xec\xc6\xda\xcf&gt;\x93\xce*nKdul\xab\xf2\x93\xb7\xb6&quot;\x9cL\xbe\xa4\x85\xc8*U\xbe)\xfc-g\xbc\x99MUNtsV\xa37\xbbu(r\xc3\xcd)7\xd9V\x04\x91\xf7\xc2\xe2\x81\x96\xdd[\xc1\xb6\xdeu\x8bn\xa2N\xf8\xb3\xb08\x97\x9e\xb8@\xe3\x14\xac\xc9\x0e\\y\x0c8\x91\xc8\x94\x8b\xa1\xc6\xbb\xa4\xdfe\r\xb6\xc1\x06l\xcbYO\x8a\xab\xaaU\xb2\xacf&quot;W\x10\xd2_z\x1b$!\x056\x04\xd9#k\xdb\xafL\x1530\xfcZp1\xa97\x11t*d\xd8\xad$\xb51+U\xba&gt;\xd8W\xf3\x04\x1c\x11D\xcd\x95ZB\x12\x1c\xa4\tM$\x83\xae\x13\xc3W\xff\x00\x95[\xfa\x9c~B\x83\xf2\x89XZ}w\xe8;cMv\x13\xa2\x9e\xe1J\x94\x9d[\x85 \xda\xfe\xd7\xc4\x8b\x93\xcaR\xd8\x86\xc7\xe2\xa6%\x07-\x98\x86#\xefKR\x86\xb8\xb2\x9b\xe5\x15\x01\xe1Go\xbe\x088g\xc6\xf8\\A.Gy\x94R\xa7\x01tG\\\x848\\O\x94\x91o\xdb\x15&#x27;2Mz\x1c\xb7\xe2\x06\xd2\x8b\xb25-\xdb,\x90N\xab\x83\xe6\xca\x1f\xb6\x1b\x1f\x08\x19i\x8a\xe6c\xad\xd5\x9fa.\xa2\x1cv\xd9e\xc5\xa6\xfa\\R\x89${\xe9O\xf3\xc5\xf7\x8e-\x89\x82\xa1\xd1\x8a\x9eD\xae[g\x1b\x12\xcc;\x06[\xca+a\xe0G\x82q\xa0\xb1RA \xa4\x13\xe6\xc3\x13_\x87\xad\x94\x92\xc7Q\xda\xf8\xf9\x9a\x92\xdbF\x95\xb2J\x86\x19\xe2\xddAy\x1f\r9q\xd4\xd4\xa4\xe4\x9a\x8b\x95\xa9-\x92\x95\xc0\x92\xf8K\xed\x1e\xc4\x1e\xe3\x08&lt;\xf3M\xcdY\x16\xa6\xe5:\xa5\x16\xa1\x05W\xb2\x1c\x98\x83\xc9W_\xca\xa3\xb1\xe9\xdb\x1d9g\x89.\xc2\xae\xaat\x1a\xc2\xf9\x8aRu\x02\xe1I\xd4\x9e\x80\xf9\x18)\xcf\xbcX\x9d\x9e`\xaa\x89QHr\n\xca_h9e\x14:\x01\xd5\xa4\xf8\xdf\xa6&lt;\xf5I\xbd\x98\xe8@\xab\x11F\x88s%/]A\xd1%$\xdfTab\x9cl\x89IM&quot;\xa2\xcc\xd8r\x9c\x90\x90\xafZ]YQH\xc6\x0fS5\xf3\x11\x1d\xd5\xb0\xf2\r\xd3\xcbV\xca\x18\x80\x9b\x1ev\xa58\xc4\xc7\x1a\x92\x81u6\xa2=x\x92z\xfc\x91\xc7o\xb1\xf7\xc3\x9a\xc7\xe1\xf2\xd9C\xde\xb6%\xbay\xa9\x04\r`\x82;\xfba\x1d^\x89+*\xe7\x19\xc6\x11/\xc4nR\x92Gr\x8dG\xed\xd3\x06Yv\xa6\xba\x84X\x92\x82\x8e\x96\x12\x14\xa1\xff\x00\xd8:\xe0B\xa3T\xd7\x9a\xe5\xf3W\xbc\x90T\x9e\xdb\x83\xdb\x03\xd7\xb3\x08e\xc2\xf8u\xe2\x0f\xe0M\xc5\x8c\xa7\x83\xf1\xea\x0e\x86\x97\x19k\xdd \xec\x9b\x0c}\x9exS\x9d8)\x9d\xea\x19\x92\x92\xd2j\xf4\x05\xbb\xf3+1\x81.\xc7M\xc9\xb2\xd3\xfe\x90;\x8c\x0cp\x06,o\x9b\x19\x8an\x92\x98\xa0\x18\xcc*\xc9\xe68\x07_\xb6\x0cx\xaf\xc6,\xd3\x94\xb8\x85A\xf9\xb4|\xb4*\x84@\xb2\xd3\x9e\xa1!\xa5lB\x87\xdb\x00u$\xd8\x87V\xd4\x95\xa6\xe7l\xb9\xf1\x1f\x97\xa4\xe5\\\xc0\x85S&amp;!\xc2\xa8\xb5\x04\xa4(\xb6F\xfd\xfb\x1b\x9d\xb0\x82\xcd\x99/3|8\xe7\x93\x14\xacIna\x065E\x9b\x96\xde@ \x9bt\xde\xd6\x04`\x9a\xbd\x93\xeaYb\xa9W\xaf\xe5\x948\xba}\x83\xcaj=\xcf)*I$\x81\xd6\xc3\x0c\xac\x83\x1a\x81\xc7L\x93\x16\x89\x99]W29R\xe1HC\xda]az{\x13\xd4\x1b\r\xb0\x06\xc6\x08\xb8e\x7f\x91K\xc4\x18\xe9]|\xced&#x27;\x951\xb4\xbe9h\x08\x1b\xf5\xd8m\xd6\xf8\x1d[\xea\x14\xe9\x0c-\x01\xc6\xd6\x93`w\xb1\xf3\x82.&quot;\xd1$eL\xcc\xf5\x11\xe7T\xb4BB[oU\xff\x00-\xafq\xe6\xf8\x1ea\x7f7v\xecm\xd3\xa66\x01\xa9r\x94V\t\xd68&#x27;^\xcePi\x92(\xb14s\x92\xb6\xa4\xb9-\nm\x95z\xce\x95%ZM\xc0\x04\x83\xf4\x18j\xf0\xeb-\x9e\x14\xe5\xf5Q\x9a\xfe$\xc0\xea\x97)\xd0-\xad\xce\x9b\x7f\xf1\x00m\x8d\x99/\x8f\x19\x8b-\xc2U\x1e4d\xcb\xa6\xb2\xf2\x9aB\xa4% 3bw\x00\xa8\x1f\xdb\x1c9\x9f\x89\x8b\xaa\xe65\xccr+m\x15\xa1)t1\xf9\x14\xb1\xb1P\xfa\x8b~\xd8\xbe\xf1D\xff\x00%2\xeb\xe1\x8b\x9ew\x1e\x15\xc4\x1b\x1b\x8e\xd7\xb1\x0c&quot;g\xd7\xd8t\x87A\x16\xf3\x8e\xdf\xfa\x86\xd8\xbf\xa3W\xbe\x01Z\xae\xd3\xaa(\xe8\xa4\xac\xfb[\x1f\x16J\xb7l\xdd=\xb0\xd8&quot;/f\x89\xf4\xc5\xa6S)\x8bK\x11\x02\x10\xd8\xfc\xea\xda\xff\x00\xdf\x111Z\xad\xc8ir%L\x11\x98qWi\xbd \x94\x0e\xdb\x9e\xf8\xe8\xaeE\x95Z\xac\xb2\xd0s\x95\x15\x83\xad\xc0\x81\xb5\xcf@q\x8dHG\x8c\x96\xe3\x87y\xae(\xfew\r\xed\xe4\xe3\xcfH\xfb\x1eg \xac\xb8\xe3\xbc\x95&gt;\xde\xb6\x8d\x8b\xe4z\xaf\xf4\x18\x8c\xcc\xb5\x88\xf4\xf6P\xea\xd4\xe3\x8etN\x94\xe9$\xf9\xc4\xd4\xb90(4\xb7^f*\x96\xa4\x0b\x97\x1c\x16+W\xfc\xe1V\xa3Q\xacIrT\xc4(\xa9g\xd2\x806H\xf6\x18\xd7Y\x85\xaa:\xf8_\x16^~j\r\x0f/\xb7\xcf\xa8\xc9sB\x93k\x04\x93\xe4\x9d\xbaa\xd7O\xf82\x83W\xaa\x8a~e\xceMe\xec\xcc\xd2n\xcc \xd0q\x16=\tU\xf7\xfbb\xbfp&quot;\xb97&amp;\xd7^\xa9A\x91\xf2\xaba\x1b\xb6\xe7\xf9\x97=\xb0\xd7\xcc\xbcI\x97\x9b\xaa\xb0\xea\x8eN\x08\xa9DN\x94&lt;\x05\xb6\xf0O|n\x89\x13b\x87\xb9b\xf8s\xf0\xf7##\xc5\x8e\xed~c\x15\xa7 \xdf\xe5!\xc6p%\x0fnN\xa2o\xbf\xd3\n\xdf\x89l\xd1#;\x18\xcd\xcc\x82\xa8\x15jC\xa9\xe4\x97\x1b\xd2\xa2\xda\x89\xba~\x9d1\x84n7\xcc\xa9\xe5W\xa9\xd2\x90\x87\xdec\xf8\x91\x9eiv[N\r\xfa\x8e\xc7\xc6\x0c\xf2g\x11i|g\xcaR\xe0f\xfalu\xd4[\x1e\x99HHm\xd4$mp\xae\xe4_\xa68[\xfb\x08}j&#x27;\xb8q\xc6\n\xbd\x15U\x16\x93$\x9d\x0c\x96\x90\x85\xd8\x84\x9bl\x08=\xb1\xc5I\xcf\x8f?\x9a\x9a\x90\xc4dSZ+\x0f*4{\xf2\x89\xb5\x89\x03\xeb}\xbb_\x03y\xf2\x94rnq\xa9\xc3M\xb9j\xba\n\x86\xf7 \xd9&#x27;\xee1\xc6\xedM\xfaZcrT9\x0e\x81\xceE\xba\x84\xf4 \xf6\xc1\x14\x082MK7\xc4\xbam\x13?p\xf0fh%M\xd7\xe9\xb6bh\xb9\xd0\xf3}\x01\x17\xee.:a=\x96\x99C\x95\x16\xd0\xa1\xe9\xd5u[\xc0\xdf\xfba\x8d\xc1&lt;\xe3\x12g\xcbS\xe7DnsO\xa5L\xbc\xc8\xfdm\x9e\xaa#\xcd\xbb\xe0{7\xd0\x91\x913\xcc\xf8\xb1\x17\xaa3k\xd6\xce\xbf\xfd\xb5n\x01\xfbm\x81\xd1\xba\x12\xcb\x06[Z0t\xd3\x93^\x9e\xe3\xf4XR$G\x90B\xac\xda\n\x89^\x9fY\x00om@\x9cr*\x0bL\xa9Iu\xb2\x95\xa4\xd8\xa5B\xc4\x1f\xa6\x0bUU\xaf/0.\xb1\x19f4\x95\xa8-E\x02\xd6P\xd8\x11kZ\xc2\xc3\x06R3\xcb\xf9\xa9\xe4\x7f\x8b\xa9\xccU\x9b\t\x08.\x96\x82^\x03\xa5\xc3\x89\xb2\xaf\xf5*\x1e\xc7\x0e|U\xc9\x87\x02\x86X\x8f\xcd8sr\x1d\x91\xa2\x9a;\x91\xd0\xa1v\xb4\xfb\xdb\x12\xa8x\x14\xfa\x1c\xd2\x9f\x16\xc1us-\xe5\xc8\xd4\xef\x9f\xa4O\xe7\rA\n\xa7\xc9M\x9fE\xef\xb8 Yi\xf7\xb0&gt;\xd8\x1f\xe5\x0f\xd3\x10\x81\xfe\xdcX+\x06\x1a\x95l\xa5M\x18\x8a\xa2\xc5y\x14\xc5\xc9\xa8\xbc\xadj:\xd4\x94\x9b_\xfe\xf8\xce+1\xe4-RT\xd1.\xa8Y\xa6\xc0\xbe\x91\xe7\x1fN\x87\xcd}\x98\x0c\xba\xa5\xba\xe1\tq\xd5tJ{\x9flu\xd7&amp;C\xa0\xd1\xdc[J\xd2\xd3)\xb2\x9e\xed\x7f\xeep\x80\x00\x8e\xe2\xfdAZ\xfbj\xafI\x11\xfee\x0c\xb6\xc9\xf5%&#x27;\xf3+\xdf\xe9\x8895v\xa9eL&amp;[r\x1c\x1b\x06\xc2A$\xf8\xc4=O4&lt;\xeb*\xf9FCA[\x97\x0e\xea&gt;\xf8\x81\xa3\xca\xf9:\x9cij@uL\xba\x17\xa5]\x0e\xf8\xd0\xde\x8c%P\xb8\xe6\xa1\xf0\xf2ZQ\x1e\xa5P\x9e#\xb8\xf3z\x84V\xbd:\x01=\x14|\x9cO?E\x88\xccu\x05I\xd2\xd2\x13\xeaH_A\x89\x8aC\x11\xb3\xb1\x8e\x98\x91\x95.[\x89\x16\x8e\xc8*]\xfcXa}\x9c\xa7\xcd\x90\xba\xb5.==\xdaj\xa0+K\xed\xa96q[\xd8\x83~\x98\xef\xb0\xfd\x14\xce(\xfe\xc6s=\x9b\xa0R&#x27;6\xd5\x0eHYqvuJ$\x8d\xbc\xe0\xde\x91\xc584\xa6\x9bf;\x85\xd9\xae\xa8%Hj\xfdI\xe9|#\xd3\x01\xd0\xadmF^\x94\x10T\xabt\xc4\xf5\x12\x9f:\x99\x9a\xa8\x81-\xf2\x9fvK.6\xa7\x85\x90\xab\xac[\xda\xdeq\xc9P+s\xa5s\x19R\xab\x071\xcc\x93&amp;B\xae\xa7\x10T\xa0{(\x9ck\x83!\xba\x93*p\xec\x1al\xa7O\x83\xff\x00\x83\x03\xb4\xc5\xae\x9f\x993\x1c&#x27;]m\xd53-\xe4\xa3\x96};,\x82\x07\xb6\x08\xa2S\x8cf\x9fm*JJ\xf4$\x8b\xd8\x9b\xf5\xdb\x18\xba\xd4\xc3\n\xb8y\x9b\xa5F\xac\xc7\x9em\x1f\x94\xde\x87\x10\xc7\xa4\x11\xb0\xfe\x83\x0e\xae%\xd0SX\xa7e\xcc\xda\x98\xef\xca\xf9\xb0\x88\xf2ci$\xab\xae\x95\x02&lt;\xf4\xc5s\x84\xf2c\xce}\x86G\xac\xad \xa7\xdb\xa5\xf1r8p\xa9\x19\xfb\x86s\xe1S\xe5\xa5\x97\xa26\x84!\x876\x0f\x04\xef\xcb&gt;=\x8f\x9bc}A&quot;\xe6\xd1\xca\xecEc\x15\x88\xb1\x1bK.\x1b- $\x85\r\xee&lt;\xe3`\xcc\x14\xe4\x92\x16\xa1\x8dY\x9a:s\x15X\xbd!\xa8\xf4\xf7\xd0\x84\xb4\xb4Ge-\xddI\xda\xe4&amp;\xc2\xfd\xaf\x88\x87\xf2:\x9d?\xc3x\xae\xfe\xddp\xfb\x8c\xda\x88\x91\x90S\x19=\xf8\xad&lt;\xa4\xad\x92\xda\x88\xed\xb68\xd5\x9a\x8aTBXAOlqS\xb8WR\x96\xe8\tZ\x99o\xc9\xc1\x9c\x1e\x0fGn:R\xfc\xd5\x97;\x91\x82\x85&#x27;\xd4\xe1eW\xa4\xb2\x99\xf5\xa9R\x12\xaeE=\x84\xf2\xd2I\xb1Z\xba\x9c\x08\xf1\x9a\xaeM6,4\x12\xd2T\xe6\xad\x03k\x81\xdf\x05\x99\x19?\x89Sy\xee\x9d\xca\xd4t\x8e\x80\xdc\xef\xfc\xb0\xaa\xe2\xcc\xd7df\xa56\xb3t6\x80\x12;\x0e\xb8\xf3\xff\x00Q\xd8{\x9cqH\x9dNK\x81$[\xd0G\x9d\xba\xe2,6Zwp\x00\x18\x97\xcbm\xf3i\xae\x82\xa3\xb68\xea\x8d\x86\xe4(u\xb8\n\xc0N\xa4\x95\x16\xb1\xff\x00\xf0\xa7\\o+q\x0f\xf1G\x1dq\x0c\xa6&quot;\xa4-@\xd9)#bO\xd0\x83\x83\xee&quot;\xf1R\x81\xc5\xa5\xce\x9c)mE\xafH\x98\xa4;%\x8f\xf3Y\xb7\xa7W\x93\xef\x85/\xc3\r\xe6\xe7\xa6&quot;:\xab\xc7\x0c\xae\xe8\x1f\xaa\xe2\xd6&gt;\xdb\x9d\xb1\x1d\x0e\x95\xf8\x06\x7fz3\x0f\xadM\xa2B\xdb \x8bj\x00\x9bb&#x27;[\xcd\xda\x14\x1a\xc7\xd6\x14\x1aS\x14\xdb\xb4\x96\xc2\x03\xf6n\xca\x1a\x85\xf7\xc1\x7f\x1a\xf2\xacx\x9f\x0f\xf9Fz[B\x1efW-O\r\xd4RB\x8d\x81\xec./l\x0f\xce\x90e\x08\x88P\x03[\x96$u\xeb\x86o\x11\xb2\xc3Y\x97\xe1\x89R\xcb\xca\x88i3\x92Cm\x8b\xa5\xefI\x1e\xaf\xdf\x13\t\xb0$P\xa0X\x95\x1e\x9a\xe0\x81PK\xa8x\xad\xc5/u\x13\xd4_{\xe1\x9e\x89ESP\xf9&gt;\x96\xd2,O{\xe1b\xecdB\xd3\xa3s\xa8\x01|:\xb3\xc5-\xac\xb7M\xcb\xe5\x90\x97\x17&amp;\x13/\xadE6$\x9f&gt;q\xb5\xf79\x06G\xd2\xc7&quot;\xa2\xa9.$\x95\xa9\nY\x18\xb1\\\t\xcc\xefR(\x13\x97\x11\xb5\t\xcd\xa7\xe6\xa4+\xc2\x01\x16\xb1\xe9\xb0\xc5w\xa7&lt;Mp\xa0\x80\xa4)\xb0\x82\x93\xef\xbe\x1b&lt;+\xab.\x1576&gt;\x94\x05\x1f\x95,\x04\x13\xe9\xd2A\xbe\xd8\xe9\x85\xa9\x9d.\x8c\xbc\x8d\xf0\x8b$\xf1\x83,D\xaa\xb9\x054\xea\xb4\x86\xc2\x95:\x17\xa6\xeb\xb7\xea\x03c\xf7\xc2\xbf5pzG\x0c\\&amp;cBD&quot;\x7f\x875#\xd0}\x8f\x83\xecq\xb7\xe0\xea\xb9Rbl\xaa[\xd3\x17&amp; \x86\xdb\xe1+\xecM\xcd\xba\xf6\xc5\xa9\x9fG\x85\x99i2i\x158\xe9\x99\x02[e\x97YspRA\x07\xe8}\xfbb\xf3\x85\xcbtK;\x95\xdc\x9e&amp;7&amp;\x85\x19\xe7\xbey\xe3\x96]\xc9\xcd)\xbf\x99K\xd2z\x06\x9a7?\xcb\n\x19\x7f\x13\x19\x92S\xear\x05\x1d\x7f,\x7f)WS\x89~&amp;p6\x85\xc3\xce(f*\\g\x1e\x9c\xc4iJ\xe4\xaaQ\xd4\xa4\xa4\x9b\x80O{t\xbe9\x9b\x83\x1d\x94\xe8K(\t\x1e\xc3\x12\x1f\xc8dsI\xa9\x1b\x1f\r\x14n\x7f\xff\xd9</div></td></tr><tr><td style="font-weight:bold;vertical-align:top;">registration_id</td><td style="vertical-align:top;">:</td><td><div></div></td></tr><tr><td style="font-weight:bold;vertical-align:top;">registration_key</td><td style="vertical-align:top;">:</td><td><div></div></td></tr><tr><td style="font-weight:bold;vertical-align:top;">reset_password_key</td><td style="vertical-align:top;">:</td><td><div></div></td></tr><tr><td style="font-weight:bold;vertical-align:top;">thematics</td><td style="vertical-align:top;">:</td><td><div><table><tr><td><div>Geographical Information System</div></td></tr><tr><td><div>spatial genetics</div></td></tr><tr><td><div>TEST</div></td></tr></table></div></td></tr><tr><td style="font-weight:bold;vertical-align:top;">uploaded_picture</td><td style="vertical-align:top;">:</td><td><div>auth_user.uploaded_picture.92fcbe68e1aef7b8.6d6f694d756c65732e6a7067.jpg</div></td></tr></table></div></td></tr><tr><td style="font-weight:bold;vertical-align:top;">user_groups</td><td style="vertical-align:top;">:</td><td><div><table><tr><td style="font-weight:bold;vertical-align:top;">2</td><td style="vertical-align:top;">:</td><td><div>recommender</div></td></tr><tr><td style="font-weight:bold;vertical-align:top;">3</td><td style="vertical-align:top;">:</td><td><div>manager</div></td></tr><tr><td style="font-weight:bold;vertical-align:top;">4</td><td style="vertical-align:top;">:</td><td><div>administrator</div></td></tr><tr><td style="font-weight:bold;vertical-align:top;">5</td><td style="vertical-align:top;">:</td><td><div>developper</div></td></tr></table></div></td></tr></table></div></td></tr><tr><td style="font-weight:bold;vertical-align:top;">back</td><td style="vertical-align:top;">:</td><td><div>http://127.0.0.1:8000/pcidev/admin/thematics_list?_signature=84c7a9b40efc907f92baac86392b7a674cfe1807</div></td></tr><tr><td style="font-weight:bold;vertical-align:top;">flash</td><td style="vertical-align:top;">:</td><td><div>None</div></td></tr></table></div>'
tRp666
sS'etype'
p667
S"<type 'exceptions.TypeError'>"
p668
sS'date'
p669
S'Fri Sep 23 16:29:21 2016'
p670
sS'response'
p671
g57
(S's\x998\x00\x00<div><table><tr><td style="font-weight:bold;vertical-align:top;">body</td><td style="vertical-align:top;">:</td><td><div>&lt;cStringIO.StringO object at 0x7f1fc09639d0&gt;</div></td></tr><tr><td style="font-weight:bold;vertical-align:top;">cookies</td><td style="vertical-align:top;">:</td><td><div><table><tr><td style="font-weight:bold;vertical-align:top;">session_id_pcidev</td><td style="vertical-align:top;">:</td><td><div>127.0.0.1-75482a6d-8697-4716-ab90-c4e2cac7467e<table><tr><td style="font-weight:bold;vertical-align:top;">comment</td><td style="vertical-align:top;">:</td><td><div></div></td></tr><tr><td style="font-weight:bold;vertical-align:top;">domain</td><td style="vertical-align:top;">:</td><td><div></div></td></tr><tr><td style="font-weight:bold;vertical-align:top;">expires</td><td style="vertical-align:top;">:</td><td><div></div></td></tr><tr><td style="font-weight:bold;vertical-align:top;">httponly</td><td style="vertical-align:top;">:</td><td><div></div></td></tr><tr><td style="font-weight:bold;vertical-align:top;">max-age</td><td style="vertical-align:top;">:</td><td><div></div></td></tr><tr><td style="font-weight:bold;vertical-align:top;">path</td><td style="vertical-align:top;">:</td><td><div>/</div></td></tr><tr><td style="font-weight:bold;vertical-align:top;">secure</td><td style="vertical-align:top;">:</td><td><div></div></td></tr><tr><td style="font-weight:bold;vertical-align:top;">version</td><td style="vertical-align:top;">:</td><td><div></div></td></tr></table></div></td></tr></table></div></td></tr><tr><td style="font-weight:bold;vertical-align:top;">delimiters</td><td style="vertical-align:top;">:</td><td><div><table><tr><td><div>{{</div></td></tr><tr><td><div>}}</div></td></tr></table></div></td></tr><tr><td style="font-weight:bold;vertical-align:top;">files</td><td style="vertical-align:top;">:</td><td><div><table><tr><td><div>/pcidev/static/js/jquery.js</div></td></tr><tr><td><div>/pcidev/static/css/calendar.css</div></td></tr><tr><td><div>/pcidev/static/js/calendar.js</div></td></tr><tr><td><div>/pcidev/static/js/web2py.js</div></td></tr></table></div></td></tr><tr><td style="font-weight:bold;vertical-align:top;">flash</td><td style="vertical-align:top;">:</td><td><div></div></td></tr><tr><td style="font-weight:bold;vertical-align:top;">form_label_separator</td><td style="vertical-align:top;">:</td><td><div></div></td></tr><tr><td style="font-weight:bold;vertical-align:top;">formstyle</td><td style="vertical-align:top;">:</td><td><div>bootstrap3_inline</div></td></tr><tr><td style="font-weight:bold;vertical-align:top;">generic_patterns</td><td style="vertical-align:top;">:</td><td><div><table><tr><td><div>*</div></td></tr></table></div></td></tr><tr><td style="font-weight:bold;vertical-align:top;">google_analytics_id</td><td style="vertical-align:top;">:</td><td><div>None</div></td></tr><tr><td style="font-weight:bold;vertical-align:top;">headers</td><td style="vertical-align:top;">:</td><td><div><table><tr><td style="font-weight:bold;vertical-align:top;">X-Powered-By</td><td style="vertical-align:top;">:</td><td><div>web2py</div></td></tr></table></div></td></tr><tr><td style="font-weight:bold;vertical-align:top;">logo</td><td style="vertical-align:top;">:</td><td><div></div></td></tr><tr><td style="font-weight:bold;vertical-align:top;">menu</td><td style="vertical-align:top;">:</td><td><div><table><tr><td><div><table><tr><td><div>Home</div></td></tr><tr><td><div>False</div></td></tr><tr><td><div>/pcidev/default/index</div></td></tr><tr><td><div><table></table></div></td></tr></table></div></td></tr><tr><td><div><table><tr><td><div>About</div></td></tr><tr><td><div>False</div></td></tr><tr><td><div>#</div></td></tr><tr><td><div><table><tr><td><div><table><tr><td><div>About PCiEvolBiol</div></td></tr><tr><td><div>False</div></td></tr><tr><td><div>/pcidev/public/managers</div></td></tr></table></div></td></tr><tr><td><div><table><tr><td><div>Members of PCiEvolBiol</div></td></tr><tr><td><div>False</div></td></tr><tr><td><div>/pcidev/public/recommenders</div></td></tr></table></div></td></tr></table></div></td></tr></table></div></td></tr><tr><td><div><table><tr><td><div>My contributions</div></td></tr><tr><td><div>False</div></td></tr><tr><td><div>#</div></td></tr><tr><td><div><table><tr><td><div><table><tr><td><div>My recommendation requests</div></td></tr><tr><td><div>False</div></td></tr><tr><td><div>/pcidev/user/my_articles?_signature=9bbcf0cda31ff0c486ab54143c8ca62b8d72177e</div></td></tr></table></div></td></tr><tr><td><div><table><tr><td><div>My reviews</div></td></tr><tr><td><div>False</div></td></tr><tr><td><div>/pcidev/user/my_reviews?_signature=7d47c181fdbe7f5d385fa53a37fd03657a65e4c4</div></td></tr></table></div></td></tr><tr><td><div><table><tr><td><div>My press review contributions</div></td></tr><tr><td><div>False</div></td></tr><tr><td><div>/pcidev/user/my_press_reviews?_signature=24b605fcf206b0871df94a3fff3332ca4013750e</div></td></tr></table></div></td></tr><tr><td><div><table><tr><td><div>My recommendations</div></td></tr><tr><td><div>False</div></td></tr><tr><td><div>/pcidev/recommender/my_recommendations?_signature=9332b5a52cfbff95549e8ce94928e7289c38d4df</div></td></tr></table></div></td></tr></table></div></td></tr></table></div></td></tr><tr><td><div><table><tr><td><div>Articles to be considered</div></td></tr><tr><td><div>False</div></td></tr><tr><td><div>#</div></td></tr><tr><td><div><table><tr><td><div><table><tr><td><div>Articles wor which you have been sollicitated</div></td></tr><tr><td><div>False</div></td></tr><tr><td><div>/pcidev/recommender/my_awaiting_articles?_signature=e39a7d3c4a56802f4231cd7d3598574bc9d798e8</div></td></tr></table></div></td></tr><tr><td><div><table><tr><td><div>Articles awaiting consideration in my fields</div></td></tr><tr><td><div>False</div></td></tr><tr><td><div>/pcidev/recommender/fields_awaiting_articles?_signature=a791260161001cabba41c15a24eeb0bf9a788e1e</div></td></tr></table></div></td></tr><tr><td><div><table><tr><td><div>All articles awaiting consideration</div></td></tr><tr><td><div>False</div></td></tr><tr><td><div>/pcidev/recommender/all_awaiting_articles?_signature=963368700d2095392ced3a5655cdb7d9c98ac2d4</div></td></tr></table></div></td></tr></table></div></td></tr></table></div></td></tr><tr><td><div><table><tr><td><div>Management</div></td></tr><tr><td><div>False</div></td></tr><tr><td><div>#</div></td></tr><tr><td><div><table><tr><td><div><table><tr><td><div>Pending articles</div></td></tr><tr><td><div>False</div></td></tr><tr><td><div>/pcidev/manage/pending_articles?_signature=f06042d6e14622ad9c940c5a57b7fef575155a93</div></td></tr></table></div></td></tr><tr><td><div><table><tr><td><div>All articles</div></td></tr><tr><td><div>False</div></td></tr><tr><td><div>/pcidev/manage/all_articles?_signature=a1273858325b2b84965f8a01e3fb26481530b29f</div></td></tr></table></div></td></tr></table></div></td></tr></table></div></td></tr><tr><td><div><table><tr><td><div>Administration</div></td></tr><tr><td><div>False</div></td></tr><tr><td><div>#</div></td></tr><tr><td><div><table><tr><td><div><table><tr><td><div>Users &amp; roles</div></td></tr><tr><td><div>False</div></td></tr><tr><td><div>/pcidev/admin/list_users?_signature=1eed2e367398ff50f9cefe034843639680d2632f</div></td></tr></table></div></td></tr><tr><td><div><table><tr><td><div>Thematic fields</div></td></tr><tr><td><div>False</div></td></tr><tr><td><div>/pcidev/admin/thematics_list?_signature=84c7a9b40efc907f92baac86392b7a674cfe1807</div></td></tr></table></div></td></tr><tr><td><div><table><tr><td><div>Article status</div></td></tr><tr><td><div>False</div></td></tr><tr><td><div>/pcidev/admin/article_status?_signature=619c4a9c39e33bdb567d6e9480d70f786e088cb4</div></td></tr></table></div></td></tr><tr><td><div><table><tr><td><div>Help texts</div></td></tr><tr><td><div>False</div></td></tr><tr><td><div>/pcidev/help/help_texts?_signature=728f366c81aecb2668e226ff4ace1b38e6d0fed1</div></td></tr></table></div></td></tr></table></div></td></tr></table></div></td></tr><tr><td><div><table><tr><td><div>Developpement</div></td></tr><tr><td><div>False</div></td></tr><tr><td><div>#</div></td></tr><tr><td><div><table><tr><td><div><table><tr><td><div>Design</div></td></tr><tr><td><div>False</div></td></tr><tr><td><div>/admin/default/design/pcidev</div></td></tr></table></div></td></tr><tr><td><div><li class="divider"></li></div></td></tr><tr><td><div><table><tr><td><div>Controller</div></td></tr><tr><td><div>False</div></td></tr><tr><td><div>/admin/default/edit/pcidev/controllers/user.py</div></td></tr></table></div></td></tr><tr><td><div><table><tr><td><div>View</div></td></tr><tr><td><div>False</div></td></tr><tr><td><div>/admin/default/edit/pcidev/views/user/my_reviews.html</div></td></tr></table></div></td></tr><tr><td><div><table><tr><td><div>DB Model</div></td></tr><tr><td><div>False</div></td></tr><tr><td><div>/admin/default/edit/pcidev/models/db.py</div></td></tr></table></div></td></tr><tr><td><div><table><tr><td><div>Menu Model</div></td></tr><tr><td><div>False</div></td></tr><tr><td><div>/admin/default/edit/pcidev/models/menu.py</div></td></tr></table></div></td></tr><tr><td><div><table><tr><td><div>Config.ini</div></td></tr><tr><td><div>False</div></td></tr><tr><td><div>/admin/default/edit/pcidev/private/appconfig.ini</div></td></tr></table></div></td></tr><tr><td><div><table><tr><td><div>Layout</div></td></tr><tr><td><div>False</div></td></tr><tr><td><div>/admin/default/edit/pcidev/views/layout.html</div></td></tr></table></div></td></tr><tr><td><div><table><tr><td><div>Stylesheet</div></td></tr><tr><td><div>False</div></td></tr><tr><td><div>/admin/default/edit/pcidev/static/css/web2py-bootstrap3.css</div></td></tr></table></div></td></tr><tr><td><div><table><tr><td><div>Database</div></td></tr><tr><td><div>False</div></td></tr><tr><td><div>/pcidev/appadmin/index</div></td></tr></table></div></td></tr><tr><td><div><table><tr><td><div>Errors</div></td></tr><tr><td><div>False</div></td></tr><tr><td><div>/admin/default/errors/pcidev</div></td></tr></table></div></td></tr><tr><td><div><table><tr><td><div>About</div></td></tr><tr><td><div>False</div></td></tr><tr><td><div>/admin/default/about/pcidev</div></td></tr></table></div></td></tr></table></div></td></tr></table></div></td></tr></table></div></td></tr><tr><td style="font-weight:bold;vertical-align:top;">meta</td><td style="vertical-align:top;">:</td><td><div><table><tr><td style="font-weight:bold;vertical-align:top;">author</td><td style="vertical-align:top;">:</td><td><div>Sylvain Piry &lt;piry@supagro.inra.fr&gt;</div></td></tr><tr><td style="font-weight:bold;vertical-align:top;">description</td><td style="vertical-align:top;">:</td><td><div>Peer Community in Evolutionary Biology</div></td></tr><tr><td style="font-weight:bold;vertical-align:top;">generator</td><td style="vertical-align:top;">:</td><td><div>Web2py Web Framework</div></td></tr><tr><td style="font-weight:bold;vertical-align:top;">keywords</td><td style="vertical-align:top;">:</td><td><div><table><tr><td><div>web2py</div></td></tr><tr><td><div>python</div></td></tr><tr><td><div>framework</div></td></tr></table></div></td></tr></table></div></td></tr><tr><td style="font-weight:bold;vertical-align:top;">models_to_run</td><td style="vertical-align:top;">:</td><td><div><table><tr><td><div>^\\w+\\.py$</div></td></tr><tr><td><div>^user/\\w+\\.py$</div></td></tr><tr><td><div>^user/my_reviews/\\w+\\.py$</div></td></tr></table></div></td></tr><tr><td style="font-weight:bold;vertical-align:top;">postprocessing</td><td style="vertical-align:top;">:</td><td><div><table></table></div></td></tr><tr><td style="font-weight:bold;vertical-align:top;">session_client</td><td style="vertical-align:top;">:</td><td><div>127.0.0.1</div></td></tr><tr><td style="font-weight:bold;vertical-align:top;">session_cookie_compression_level</td><td style="vertical-align:top;">:</td><td><div>None</div></td></tr><tr><td style="font-weight:bold;vertical-align:top;">session_cookie_expires</td><td style="vertical-align:top;">:</td><td><div>2592000</div></td></tr><tr><td style="font-weight:bold;vertical-align:top;">session_data_name</td><td style="vertical-align:top;">:</td><td><div>session_data_pcidev</div></td></tr><tr><td style="font-weight:bold;vertical-align:top;">session_file</td><td style="vertical-align:top;">:</td><td><div>&lt;open file &#x27;/home/piry/Documents/web2py/applications/pcidev/sessions/1fb/1c2/127.0.0.1-75482a6d-8697-4716-ab90-c4e2cac7467e&#x27;, mode &#x27;rb+&#x27; at 0x7f1fc0d12270&gt;</div></td></tr><tr><td style="font-weight:bold;vertical-align:top;">session_filename</td><td style="vertical-align:top;">:</td><td><div>/home/piry/Documents/web2py/applications/pcidev/sessions/127.0.0.1-75482a6d-8697-4716-ab90-c4e2cac7467e</div></td></tr><tr><td style="font-weight:bold;vertical-align:top;">session_hash</td><td style="vertical-align:top;">:</td><td><div>edfe64face5d7515eb90e3b06ce4cf49</div></td></tr><tr><td style="font-weight:bold;vertical-align:top;">session_id</td><td style="vertical-align:top;">:</td><td><div>127.0.0.1-75482a6d-8697-4716-ab90-c4e2cac7467e</div></td></tr><tr><td style="font-weight:bold;vertical-align:top;">session_id_name</td><td style="vertical-align:top;">:</td><td><div>session_id_pcidev</div></td></tr><tr><td style="font-weight:bold;vertical-align:top;">session_locked</td><td style="vertical-align:top;">:</td><td><div>True</div></td></tr><tr><td style="font-weight:bold;vertical-align:top;">session_masterapp</td><td style="vertical-align:top;">:</td><td><div>pcidev</div></td></tr><tr><td style="font-weight:bold;vertical-align:top;">session_new</td><td style="vertical-align:top;">:</td><td><div>False</div></td></tr><tr><td style="font-weight:bold;vertical-align:top;">session_storage_type</td><td style="vertical-align:top;">:</td><td><div>file</div></td></tr><tr><td style="font-weight:bold;vertical-align:top;">status</td><td style="vertical-align:top;">:</td><td><div>200</div></td></tr><tr><td style="font-weight:bold;vertical-align:top;">subtitle</td><td style="vertical-align:top;">:</td><td><div>Peer Community in Evolutionary Biology</div></td></tr><tr><td style="font-weight:bold;vertical-align:top;">title</td><td style="vertical-align:top;">:</td><td><div>PCiEvolBiol</div></td></tr><tr><td style="font-weight:bold;vertical-align:top;">view</td><td style="vertical-align:top;">:</td><td><div>default/reviewsLayout.html</div></td></tr></table></div>'
tRp672
sS'locals'
p673
(dp674
S'symbols'
p675
S'(0,)'
p676
sS'message'
p677
S"'Started today'"
p678
sS'sub_plural'
p679
S'<function sub_plural>'
p680
sS'self'
p681
S'<gluon.languages.translator object>'
p682
sssS'traceback'
p683
S'Traceback (most recent call last):\n  File "/home/piry/W/web2py/gluon/restricted.py", line 227, in restricted\n    exec ccode in environment\n  File "/home/piry/Documents/web2py/applications/pcidev/views/default/reviewsLayout.html", line 141, in <module>\n  File "/home/piry/W/web2py/gluon/globals.py", line 430, in write\n    self.body.write(xmlescape(data))\n  File "/home/piry/W/web2py/gluon/html.py", line 131, in xmlescape\n    return data.xml()\n  File "/home/piry/W/web2py/gluon/html.py", line 963, in xml\n    (fa, co) = self._xml()\n  File "/home/piry/W/web2py/gluon/html.py", line 955, in _xml\n    self.components])\n  File "/home/piry/W/web2py/gluon/html.py", line 131, in xmlescape\n    return data.xml()\n  File "/home/piry/W/web2py/gluon/html.py", line 963, in xml\n    (fa, co) = self._xml()\n  File "/home/piry/W/web2py/gluon/html.py", line 955, in _xml\n    self.components])\n  File "/home/piry/W/web2py/gluon/html.py", line 131, in xmlescape\n    return data.xml()\n  File "/home/piry/W/web2py/gluon/html.py", line 963, in xml\n    (fa, co) = self._xml()\n  File "/home/piry/W/web2py/gluon/html.py", line 955, in _xml\n    self.components])\n  File "/home/piry/W/web2py/gluon/html.py", line 131, in xmlescape\n    return data.xml()\n  File "/home/piry/W/web2py/gluon/html.py", line 963, in xml\n    (fa, co) = self._xml()\n  File "/home/piry/W/web2py/gluon/html.py", line 955, in _xml\n    self.components])\n  File "/home/piry/W/web2py/gluon/html.py", line 131, in xmlescape\n    return data.xml()\n  File "/home/piry/W/web2py/gluon/html.py", line 963, in xml\n    (fa, co) = self._xml()\n  File "/home/piry/W/web2py/gluon/html.py", line 955, in _xml\n    self.components])\n  File "/home/piry/W/web2py/gluon/html.py", line 131, in xmlescape\n    return data.xml()\n  File "/home/piry/W/web2py/gluon/html.py", line 963, in xml\n    (fa, co) = self._xml()\n  File "/home/piry/W/web2py/gluon/html.py", line 955, in _xml\n    self.components])\n  File "/home/piry/W/web2py/gluon/html.py", line 131, in xmlescape\n    return data.xml()\n  File "/home/piry/W/web2py/gluon/html.py", line 963, in xml\n    (fa, co) = self._xml()\n  File "/home/piry/W/web2py/gluon/html.py", line 955, in _xml\n    self.components])\n  File "/home/piry/W/web2py/gluon/html.py", line 131, in xmlescape\n    return data.xml()\n  File "/home/piry/W/web2py/gluon/html.py", line 963, in xml\n    (fa, co) = self._xml()\n  File "/home/piry/W/web2py/gluon/html.py", line 955, in _xml\n    self.components])\n  File "/home/piry/W/web2py/gluon/html.py", line 131, in xmlescape\n    return data.xml()\n  File "/home/piry/W/web2py/gluon/languages.py", line 429, in xml\n    return str(self) if self.M else escape(str(self))\n  File "/home/piry/W/web2py/gluon/languages.py", line 389, in __str__\n    self.T.translate(self.m, self.s))\n  File "/home/piry/W/web2py/gluon/languages.py", line 949, in translate\n    message = self.params_substitution(message, symbols)\n  File "/home/piry/W/web2py/gluon/languages.py", line 926, in params_substitution\n    message = message % symbols\nTypeError: not all arguments converted during string formatting\n'
p684
s.